Archive member included to satisfy reference by file (symbol)

BSP/libBSP_LIB.a(sys.c.obj)   CMakeFiles/SMC.elf.dir/USER/main.c.obj (NVIC_Configuration)
BSP/libBSP_LIB.a(Serial.c.obj)
                              CMakeFiles/SMC.elf.dir/USER/main.c.obj (Stde_DataTypeDef_Init)
BSP/libBSP_LIB.a(usart.c.obj)
                              CMakeFiles/SMC.elf.dir/USER/main.c.obj (bsp_usart_1_inti)
BSP/libBSP_LIB.a(gpio.c.obj)  BSP/libBSP_LIB.a(usart.c.obj) (bsp_gpio_init)
BSP/libBSP_LIB.a(stm32f4xx_gpio.c.obj)
                              BSP/libBSP_LIB.a(usart.c.obj) (GPIO_Init)
BSP/libBSP_LIB.a(misc.c.obj)  BSP/libBSP_LIB.a(sys.c.obj) (NVIC_PriorityGroupConfig)
BSP/libBSP_LIB.a(stm32f4xx_rcc.c.obj)
                              BSP/libBSP_LIB.a(stm32f4xx_gpio.c.obj) (RCC_AHB1PeriphResetCmd)
CORE/libCORE_LIB.a(stratup.c.obj)
                              (Reset_Handler)
CORE/libCORE_LIB.a(system_stm32f4xx.c.obj)
                              CORE/libCORE_LIB.a(stratup.c.obj) (SystemInit)
HARDWARE/libHARDWARE_LIB.a(inv_mpu.c.obj)
                              CMakeFiles/SMC.elf.dir/USER/main.c.obj (mpu_dmp_init)
HARDWARE/libHARDWARE_LIB.a(inv_mpu_dmp_motion_driver.c.obj)
                              HARDWARE/libHARDWARE_LIB.a(inv_mpu.c.obj) (dmp_load_motion_driver_firmware)
HARDWARE/libHARDWARE_LIB.a(OLED.c.obj)
                              CMakeFiles/SMC.elf.dir/USER/main.c.obj (OLED_Init)
HARDWARE/libHARDWARE_LIB.a(OLED_Data.c.obj)
                              HARDWARE/libHARDWARE_LIB.a(OLED.c.obj) (OLED_CF16x16)
HARDWARE/libHARDWARE_LIB.a(sdram.c.obj)
                              CORE/libCORE_LIB.a(stratup.c.obj) (SDRAM_Init)
Project/libProject_LIB.a(adc.c.obj)
                              CMakeFiles/SMC.elf.dir/USER/main.c.obj (Project_BSP_ADC_Init)
Project/libProject_LIB.a(stm32f4xx_adc.c.obj)
                              Project/libProject_LIB.a(adc.c.obj) (ADC_Init)
Project/libProject_LIB.a(hw201.c.obj)
                              CMakeFiles/SMC.elf.dir/USER/main.c.obj (Project_BSP_HW201_Init)
Project/libProject_LIB.a(key.c.obj)
                              CMakeFiles/SMC.elf.dir/USER/main.c.obj (Project_BSP_KEY_Init)
Project/libProject_LIB.a(led.c.obj)
                              CMakeFiles/SMC.elf.dir/USER/main.c.obj (Project_BSP_LED_Init)
Project/libProject_LIB.a(pwm.c.obj)
                              CMakeFiles/SMC.elf.dir/USER/main.c.obj (Project_BSP_PWM_TIM2_Init)
Project/libProject_LIB.a(stm32f4xx_tim.c.obj)
                              Project/libProject_LIB.a(pwm.c.obj) (TIM_TimeBaseInit)
Project/libProject_LIB.a(tb6612_port.c.obj)
                              CMakeFiles/SMC.elf.dir/USER/main.c.obj (Project_BSP_TB6612_Init)
Project/libProject_LIB.a(ControlTask.c.obj)
                              CMakeFiles/SMC.elf.dir/USER/main.c.obj (Project_LIB_ControlStrat)
Project/libProject_LIB.a(control.c.obj)
                              Project/libProject_LIB.a(ControlTask.c.obj) (PID_forLine)
Project/libProject_LIB.a(pid.c.obj)
                              Project/libProject_LIB.a(ControlTask.c.obj) (PID_TypeStructInit)
Project/libProject_LIB.a(tools.c.obj)
                              CMakeFiles/SMC.elf.dir/USER/main.c.obj (Project_LIB_TIM3_Init)
RTOS/libRTOS_LIB.a(tasks.c.obj)
                              CMakeFiles/SMC.elf.dir/USER/main.c.obj (xTaskCreate)
RTOS/libRTOS_LIB.a(timers.c.obj)
                              RTOS/libRTOS_LIB.a(tasks.c.obj) (xTimerCreateTimerTask)
RTOS/libRTOS_LIB.a(heap_4.c.obj)
                              RTOS/libRTOS_LIB.a(tasks.c.obj) (pvPortMalloc)
RTOS/libRTOS_LIB.a(port.c.obj)
                              RTOS/libRTOS_LIB.a(tasks.c.obj) (pxPortInitialiseStack)
RTOS/libRTOS_LIB.a(list.c.obj)
                              RTOS/libRTOS_LIB.a(tasks.c.obj) (vListInitialise)
RTOS/libRTOS_LIB.a(queue.c.obj)
                              RTOS/libRTOS_LIB.a(timers.c.obj) (xQueueGenericCreate)
USER/libUSER_LIB.a(RTOSTask.c.obj)
                              Project/libProject_LIB.a(tools.c.obj) (Task4_LEDPlay)
BSP/i2c/libi2c_LIB.a(softi2c.c.obj)
                              HARDWARE/libHARDWARE_LIB.a(inv_mpu.c.obj) (Soft_IIC_Init)
/usr/lib/gcc/arm-none-eabi/13.2.1/thumb/v7e-m+fp/hard/libgcc.a(_arm_muldf3.o)
                              HARDWARE/libHARDWARE_LIB.a(inv_mpu.c.obj) (__aeabi_dmul)
/usr/lib/gcc/arm-none-eabi/13.2.1/thumb/v7e-m+fp/hard/libgcc.a(_arm_addsubdf3.o)
                              HARDWARE/libHARDWARE_LIB.a(OLED.c.obj) (__aeabi_dsub)
/usr/lib/gcc/arm-none-eabi/13.2.1/thumb/v7e-m+fp/hard/libgcc.a(_arm_muldivdf3.o)
                              HARDWARE/libHARDWARE_LIB.a(OLED.c.obj) (__aeabi_ddiv)
/usr/lib/gcc/arm-none-eabi/13.2.1/thumb/v7e-m+fp/hard/libgcc.a(_arm_cmpdf2.o)
                              HARDWARE/libHARDWARE_LIB.a(OLED.c.obj) (__aeabi_dcmplt)
/usr/lib/gcc/arm-none-eabi/13.2.1/thumb/v7e-m+fp/hard/libgcc.a(_arm_fixdfsi.o)
                              HARDWARE/libHARDWARE_LIB.a(OLED.c.obj) (__aeabi_d2iz)
/usr/lib/gcc/arm-none-eabi/13.2.1/thumb/v7e-m+fp/hard/libgcc.a(_arm_fixunsdfsi.o)
                              HARDWARE/libHARDWARE_LIB.a(OLED.c.obj) (__aeabi_d2uiz)
/usr/lib/gcc/arm-none-eabi/13.2.1/thumb/v7e-m+fp/hard/libgcc.a(_arm_truncdfsf2.o)
                              HARDWARE/libHARDWARE_LIB.a(inv_mpu.c.obj) (__aeabi_d2f)
/usr/lib/gcc/arm-none-eabi/13.2.1/thumb/v7e-m+fp/hard/libgcc.a(_aeabi_ldivmod.o)
                              HARDWARE/libHARDWARE_LIB.a(inv_mpu.c.obj) (__aeabi_ldivmod)
/usr/lib/gcc/arm-none-eabi/13.2.1/thumb/v7e-m+fp/hard/libgcc.a(_udivmoddi4.o)
                              /usr/lib/gcc/arm-none-eabi/13.2.1/thumb/v7e-m+fp/hard/libgcc.a(_aeabi_ldivmod.o) (__udivmoddi4)
/usr/lib/gcc/arm-none-eabi/13.2.1/thumb/v7e-m+fp/hard/libgcc.a(_dvmd_tls.o)
                              /usr/lib/gcc/arm-none-eabi/13.2.1/thumb/v7e-m+fp/hard/libgcc.a(_aeabi_ldivmod.o) (__aeabi_ldiv0)
/usr/lib/gcc/arm-none-eabi/13.2.1/../../../arm-none-eabi/lib/thumb/v7e-m+fp/hard/libg.a(libc_a-memset.o)
                              /usr/lib/gcc/arm-none-eabi/13.2.1/../../../arm-none-eabi/lib/thumb/v7e-m+fp/hard/crt0.o (memset)
/usr/lib/gcc/arm-none-eabi/13.2.1/../../../arm-none-eabi/lib/thumb/v7e-m+fp/hard/libg.a(libc_a-strcmp.o)
                              HARDWARE/libHARDWARE_LIB.a(OLED.c.obj) (strcmp)
/usr/lib/gcc/arm-none-eabi/13.2.1/../../../arm-none-eabi/lib/thumb/v7e-m+fp/hard/libg.a(libc_a-vsprintf.o)
                              HARDWARE/libHARDWARE_LIB.a(OLED.c.obj) (vsprintf)
/usr/lib/gcc/arm-none-eabi/13.2.1/../../../arm-none-eabi/lib/thumb/v7e-m+fp/hard/libg.a(libc_a-impure.o)
                              /usr/lib/gcc/arm-none-eabi/13.2.1/../../../arm-none-eabi/lib/thumb/v7e-m+fp/hard/libg.a(libc_a-vsprintf.o) (_impure_ptr)
/usr/lib/gcc/arm-none-eabi/13.2.1/../../../arm-none-eabi/lib/thumb/v7e-m+fp/hard/libg.a(libc_a-memcmp.o)
                              HARDWARE/libHARDWARE_LIB.a(inv_mpu.c.obj) (memcmp)
/usr/lib/gcc/arm-none-eabi/13.2.1/../../../arm-none-eabi/lib/thumb/v7e-m+fp/hard/libg.a(libc_a-memcpy.o)
                              BSP/libBSP_LIB.a(Serial.c.obj) (memcpy)
/usr/lib/gcc/arm-none-eabi/13.2.1/../../../arm-none-eabi/lib/thumb/v7e-m+fp/hard/libg.a(libc_a-init.o)
                              /usr/lib/gcc/arm-none-eabi/13.2.1/../../../arm-none-eabi/lib/thumb/v7e-m+fp/hard/crt0.o (__libc_init_array)
/usr/lib/gcc/arm-none-eabi/13.2.1/../../../arm-none-eabi/lib/thumb/v7e-m+fp/hard/libg.a(libc_a-findfp.o)
                              /usr/lib/gcc/arm-none-eabi/13.2.1/../../../arm-none-eabi/lib/thumb/v7e-m+fp/hard/libg.a(libc_a-impure.o) (__sf)
/usr/lib/gcc/arm-none-eabi/13.2.1/../../../arm-none-eabi/lib/thumb/v7e-m+fp/hard/libg.a(libc_a-puts.o)
                              CMakeFiles/SMC.elf.dir/USER/main.c.obj (puts)
/usr/lib/gcc/arm-none-eabi/13.2.1/../../../arm-none-eabi/lib/thumb/v7e-m+fp/hard/libg.a(libc_a-fvwrite.o)
                              /usr/lib/gcc/arm-none-eabi/13.2.1/../../../arm-none-eabi/lib/thumb/v7e-m+fp/hard/libg.a(libc_a-puts.o) (__sfvwrite_r)
/usr/lib/gcc/arm-none-eabi/13.2.1/../../../arm-none-eabi/lib/thumb/v7e-m+fp/hard/libg.a(libc_a-exit.o)
                              /usr/lib/gcc/arm-none-eabi/13.2.1/../../../arm-none-eabi/lib/thumb/v7e-m+fp/hard/crt0.o (exit)
/usr/lib/gcc/arm-none-eabi/13.2.1/../../../arm-none-eabi/lib/thumb/v7e-m+fp/hard/libg.a(libc_a-atexit.o)
                              /usr/lib/gcc/arm-none-eabi/13.2.1/../../../arm-none-eabi/lib/thumb/v7e-m+fp/hard/crt0.o (atexit)
/usr/lib/gcc/arm-none-eabi/13.2.1/../../../arm-none-eabi/lib/thumb/v7e-m+fp/hard/libg.a(libc_a-printf.o)
                              HARDWARE/libHARDWARE_LIB.a(inv_mpu.c.obj) (printf)
/usr/lib/gcc/arm-none-eabi/13.2.1/../../../arm-none-eabi/lib/thumb/v7e-m+fp/hard/libg.a(libc_a-fini.o)
                              /usr/lib/gcc/arm-none-eabi/13.2.1/../../../arm-none-eabi/lib/thumb/v7e-m+fp/hard/crt0.o (__libc_fini_array)
/usr/lib/gcc/arm-none-eabi/13.2.1/../../../arm-none-eabi/lib/thumb/v7e-m+fp/hard/libg.a(libc_a-strlen.o)
                              /usr/lib/gcc/arm-none-eabi/13.2.1/../../../arm-none-eabi/lib/thumb/v7e-m+fp/hard/libg.a(libc_a-puts.o) (strlen)
/usr/lib/gcc/arm-none-eabi/13.2.1/../../../arm-none-eabi/lib/thumb/v7e-m+fp/hard/libg.a(libc_a-fwalk.o)
                              /usr/lib/gcc/arm-none-eabi/13.2.1/../../../arm-none-eabi/lib/thumb/v7e-m+fp/hard/libg.a(libc_a-findfp.o) (_fwalk_sglue)
/usr/lib/gcc/arm-none-eabi/13.2.1/../../../arm-none-eabi/lib/thumb/v7e-m+fp/hard/libg.a(libc_a-vfprintf.o)
                              /usr/lib/gcc/arm-none-eabi/13.2.1/../../../arm-none-eabi/lib/thumb/v7e-m+fp/hard/libg.a(libc_a-printf.o) (_vfprintf_r)
/usr/lib/gcc/arm-none-eabi/13.2.1/../../../arm-none-eabi/lib/thumb/v7e-m+fp/hard/libg.a(libc_a-memchr.o)
                              /usr/lib/gcc/arm-none-eabi/13.2.1/../../../arm-none-eabi/lib/thumb/v7e-m+fp/hard/libg.a(libc_a-fvwrite.o) (memchr)
/usr/lib/gcc/arm-none-eabi/13.2.1/../../../arm-none-eabi/lib/thumb/v7e-m+fp/hard/libg.a(libc_a-svfprintf.o)
                              /usr/lib/gcc/arm-none-eabi/13.2.1/../../../arm-none-eabi/lib/thumb/v7e-m+fp/hard/libg.a(libc_a-vsprintf.o) (_svfprintf_r)
/usr/lib/gcc/arm-none-eabi/13.2.1/../../../arm-none-eabi/lib/thumb/v7e-m+fp/hard/libg.a(libc_a-fflush.o)
                              /usr/lib/gcc/arm-none-eabi/13.2.1/../../../arm-none-eabi/lib/thumb/v7e-m+fp/hard/libg.a(libc_a-fvwrite.o) (_fflush_r)
/usr/lib/gcc/arm-none-eabi/13.2.1/../../../arm-none-eabi/lib/thumb/v7e-m+fp/hard/libg.a(libc_a-memmove.o)
                              /usr/lib/gcc/arm-none-eabi/13.2.1/../../../arm-none-eabi/lib/thumb/v7e-m+fp/hard/libg.a(libc_a-fvwrite.o) (memmove)
/usr/lib/gcc/arm-none-eabi/13.2.1/../../../arm-none-eabi/lib/thumb/v7e-m+fp/hard/libg.a(libc_a-mallocr.o)
                              /usr/lib/gcc/arm-none-eabi/13.2.1/../../../arm-none-eabi/lib/thumb/v7e-m+fp/hard/libg.a(libc_a-findfp.o) (_malloc_r)
/usr/lib/gcc/arm-none-eabi/13.2.1/../../../arm-none-eabi/lib/thumb/v7e-m+fp/hard/libg.a(libc_a-dtoa.o)
                              /usr/lib/gcc/arm-none-eabi/13.2.1/../../../arm-none-eabi/lib/thumb/v7e-m+fp/hard/libg.a(libc_a-vfprintf.o) (_dtoa_r)
/usr/lib/gcc/arm-none-eabi/13.2.1/../../../arm-none-eabi/lib/thumb/v7e-m+fp/hard/libg.a(libc_a-wsetup.o)
                              /usr/lib/gcc/arm-none-eabi/13.2.1/../../../arm-none-eabi/lib/thumb/v7e-m+fp/hard/libg.a(libc_a-fvwrite.o) (__swsetup_r)
/usr/lib/gcc/arm-none-eabi/13.2.1/../../../arm-none-eabi/lib/thumb/v7e-m+fp/hard/libg.a(libc_a-freer.o)
                              /usr/lib/gcc/arm-none-eabi/13.2.1/../../../arm-none-eabi/lib/thumb/v7e-m+fp/hard/libg.a(libc_a-fvwrite.o) (_free_r)
/usr/lib/gcc/arm-none-eabi/13.2.1/../../../arm-none-eabi/lib/thumb/v7e-m+fp/hard/libg.a(libc_a-fclose.o)
                              /usr/lib/gcc/arm-none-eabi/13.2.1/../../../arm-none-eabi/lib/thumb/v7e-m+fp/hard/libg.a(libc_a-findfp.o) (_fclose_r)
/usr/lib/gcc/arm-none-eabi/13.2.1/../../../arm-none-eabi/lib/thumb/v7e-m+fp/hard/libg.a(libc_a-__call_atexit.o)
                              /usr/lib/gcc/arm-none-eabi/13.2.1/../../../arm-none-eabi/lib/thumb/v7e-m+fp/hard/libg.a(libc_a-exit.o) (__call_exitprocs)
/usr/lib/gcc/arm-none-eabi/13.2.1/../../../arm-none-eabi/lib/thumb/v7e-m+fp/hard/libg.a(libc_a-sysconf.o)
                              /usr/lib/gcc/arm-none-eabi/13.2.1/../../../arm-none-eabi/lib/thumb/v7e-m+fp/hard/libg.a(libc_a-mallocr.o) (sysconf)
/usr/lib/gcc/arm-none-eabi/13.2.1/../../../arm-none-eabi/lib/thumb/v7e-m+fp/hard/libg.a(libc_a-stdio.o)
                              /usr/lib/gcc/arm-none-eabi/13.2.1/../../../arm-none-eabi/lib/thumb/v7e-m+fp/hard/libg.a(libc_a-findfp.o) (__sread)
/usr/lib/gcc/arm-none-eabi/13.2.1/../../../arm-none-eabi/lib/thumb/v7e-m+fp/hard/libg.a(libc_a-__atexit.o)
                              /usr/lib/gcc/arm-none-eabi/13.2.1/../../../arm-none-eabi/lib/thumb/v7e-m+fp/hard/libg.a(libc_a-atexit.o) (__register_exitproc)
/usr/lib/gcc/arm-none-eabi/13.2.1/../../../arm-none-eabi/lib/thumb/v7e-m+fp/hard/libg.a(libc_a-reallocr.o)
                              /usr/lib/gcc/arm-none-eabi/13.2.1/../../../arm-none-eabi/lib/thumb/v7e-m+fp/hard/libg.a(libc_a-fvwrite.o) (_realloc_r)
/usr/lib/gcc/arm-none-eabi/13.2.1/../../../arm-none-eabi/lib/thumb/v7e-m+fp/hard/libg.a(libc_a-mlock.o)
                              /usr/lib/gcc/arm-none-eabi/13.2.1/../../../arm-none-eabi/lib/thumb/v7e-m+fp/hard/libg.a(libc_a-mallocr.o) (__malloc_lock)
/usr/lib/gcc/arm-none-eabi/13.2.1/../../../arm-none-eabi/lib/thumb/v7e-m+fp/hard/libg.a(libc_a-ssprint_r.o)
                              /usr/lib/gcc/arm-none-eabi/13.2.1/../../../arm-none-eabi/lib/thumb/v7e-m+fp/hard/libg.a(libc_a-svfprintf.o) (__ssprint_r)
/usr/lib/gcc/arm-none-eabi/13.2.1/../../../arm-none-eabi/lib/thumb/v7e-m+fp/hard/libg.a(libc_a-sbrkr.o)
                              /usr/lib/gcc/arm-none-eabi/13.2.1/../../../arm-none-eabi/lib/thumb/v7e-m+fp/hard/libg.a(libc_a-mallocr.o) (_sbrk_r)
/usr/lib/gcc/arm-none-eabi/13.2.1/../../../arm-none-eabi/lib/thumb/v7e-m+fp/hard/libg.a(libc_a-sprint_r.o)
                              /usr/lib/gcc/arm-none-eabi/13.2.1/../../../arm-none-eabi/lib/thumb/v7e-m+fp/hard/libg.a(libc_a-vfprintf.o) (__sprint_r)
/usr/lib/gcc/arm-none-eabi/13.2.1/../../../arm-none-eabi/lib/thumb/v7e-m+fp/hard/libg.a(libc_a-assert.o)
                              /usr/lib/gcc/arm-none-eabi/13.2.1/../../../arm-none-eabi/lib/thumb/v7e-m+fp/hard/libg.a(libc_a-dtoa.o) (__assert_func)
/usr/lib/gcc/arm-none-eabi/13.2.1/../../../arm-none-eabi/lib/thumb/v7e-m+fp/hard/libg.a(libc_a-mprec.o)
                              /usr/lib/gcc/arm-none-eabi/13.2.1/../../../arm-none-eabi/lib/thumb/v7e-m+fp/hard/libg.a(libc_a-dtoa.o) (_Balloc)
/usr/lib/gcc/arm-none-eabi/13.2.1/../../../arm-none-eabi/lib/thumb/v7e-m+fp/hard/libg.a(libc_a-localeconv.o)
                              /usr/lib/gcc/arm-none-eabi/13.2.1/../../../arm-none-eabi/lib/thumb/v7e-m+fp/hard/libg.a(libc_a-vfprintf.o) (_localeconv_r)
/usr/lib/gcc/arm-none-eabi/13.2.1/../../../arm-none-eabi/lib/thumb/v7e-m+fp/hard/libg.a(libc_a-makebuf.o)
                              /usr/lib/gcc/arm-none-eabi/13.2.1/../../../arm-none-eabi/lib/thumb/v7e-m+fp/hard/libg.a(libc_a-wsetup.o) (__smakebuf_r)
/usr/lib/gcc/arm-none-eabi/13.2.1/../../../arm-none-eabi/lib/thumb/v7e-m+fp/hard/libg.a(libc_a-locale.o)
                              /usr/lib/gcc/arm-none-eabi/13.2.1/../../../arm-none-eabi/lib/thumb/v7e-m+fp/hard/libg.a(libc_a-localeconv.o) (__global_locale)
/usr/lib/gcc/arm-none-eabi/13.2.1/../../../arm-none-eabi/lib/thumb/v7e-m+fp/hard/libg.a(libc_a-mbtowc_r.o)
                              /usr/lib/gcc/arm-none-eabi/13.2.1/../../../arm-none-eabi/lib/thumb/v7e-m+fp/hard/libg.a(libc_a-locale.o) (__ascii_mbtowc)
/usr/lib/gcc/arm-none-eabi/13.2.1/../../../arm-none-eabi/lib/thumb/v7e-m+fp/hard/libg.a(libc_a-errno.o)
                              /usr/lib/gcc/arm-none-eabi/13.2.1/../../../arm-none-eabi/lib/thumb/v7e-m+fp/hard/libg.a(libc_a-sysconf.o) (__errno)
/usr/lib/gcc/arm-none-eabi/13.2.1/../../../arm-none-eabi/lib/thumb/v7e-m+fp/hard/libg.a(libc_a-abort.o)
                              /usr/lib/gcc/arm-none-eabi/13.2.1/../../../arm-none-eabi/lib/thumb/v7e-m+fp/hard/libg.a(libc_a-assert.o) (abort)
/usr/lib/gcc/arm-none-eabi/13.2.1/../../../arm-none-eabi/lib/thumb/v7e-m+fp/hard/libg.a(libc_a-callocr.o)
                              /usr/lib/gcc/arm-none-eabi/13.2.1/../../../arm-none-eabi/lib/thumb/v7e-m+fp/hard/libg.a(libc_a-mprec.o) (_calloc_r)
/usr/lib/gcc/arm-none-eabi/13.2.1/../../../arm-none-eabi/lib/thumb/v7e-m+fp/hard/libg.a(libc_a-ssputs_r.o)
                              /usr/lib/gcc/arm-none-eabi/13.2.1/../../../arm-none-eabi/lib/thumb/v7e-m+fp/hard/libg.a(libc_a-ssprint_r.o) (__ssputs_r)
/usr/lib/gcc/arm-none-eabi/13.2.1/../../../arm-none-eabi/lib/thumb/v7e-m+fp/hard/libg.a(libc_a-fiprintf.o)
                              /usr/lib/gcc/arm-none-eabi/13.2.1/../../../arm-none-eabi/lib/thumb/v7e-m+fp/hard/libg.a(libc_a-assert.o) (fiprintf)
/usr/lib/gcc/arm-none-eabi/13.2.1/../../../arm-none-eabi/lib/thumb/v7e-m+fp/hard/libg.a(libc_a-wctomb_r.o)
                              /usr/lib/gcc/arm-none-eabi/13.2.1/../../../arm-none-eabi/lib/thumb/v7e-m+fp/hard/libg.a(libc_a-locale.o) (__ascii_wctomb)
/usr/lib/gcc/arm-none-eabi/13.2.1/../../../arm-none-eabi/lib/thumb/v7e-m+fp/hard/libg.a(libc_a-reent.o)
                              /usr/lib/gcc/arm-none-eabi/13.2.1/../../../arm-none-eabi/lib/thumb/v7e-m+fp/hard/libg.a(libc_a-sbrkr.o) (errno)
/usr/lib/gcc/arm-none-eabi/13.2.1/../../../arm-none-eabi/lib/thumb/v7e-m+fp/hard/libg.a(libc_a-ctype_.o)
                              /usr/lib/gcc/arm-none-eabi/13.2.1/../../../arm-none-eabi/lib/thumb/v7e-m+fp/hard/libg.a(libc_a-locale.o) (_ctype_)
/usr/lib/gcc/arm-none-eabi/13.2.1/../../../arm-none-eabi/lib/thumb/v7e-m+fp/hard/libg.a(libc_a-signal.o)
                              /usr/lib/gcc/arm-none-eabi/13.2.1/../../../arm-none-eabi/lib/thumb/v7e-m+fp/hard/libg.a(libc_a-abort.o) (raise)
/usr/lib/gcc/arm-none-eabi/13.2.1/../../../arm-none-eabi/lib/thumb/v7e-m+fp/hard/libg.a(libc_a-vfiprintf.o)
                              /usr/lib/gcc/arm-none-eabi/13.2.1/../../../arm-none-eabi/lib/thumb/v7e-m+fp/hard/libg.a(libc_a-fiprintf.o) (_vfiprintf_r)
/usr/lib/gcc/arm-none-eabi/13.2.1/thumb/v7e-m+fp/hard/libgcc.a(_arm_unorddf2.o)
                              /usr/lib/gcc/arm-none-eabi/13.2.1/../../../arm-none-eabi/lib/thumb/v7e-m+fp/hard/libg.a(libc_a-vfprintf.o) (__aeabi_dcmpun)
/usr/lib/gcc/arm-none-eabi/13.2.1/../../../arm-none-eabi/lib/thumb/v7e-m+fp/hard/libm.a(libm_a-w_atan2.o)
                              HARDWARE/libHARDWARE_LIB.a(inv_mpu.c.obj) (atan2)
/usr/lib/gcc/arm-none-eabi/13.2.1/../../../arm-none-eabi/lib/thumb/v7e-m+fp/hard/libm.a(libm_a-s_round.o)
                              HARDWARE/libHARDWARE_LIB.a(OLED.c.obj) (round)
/usr/lib/gcc/arm-none-eabi/13.2.1/../../../arm-none-eabi/lib/thumb/v7e-m+fp/hard/libm.a(libm_a-e_atan2.o)
                              /usr/lib/gcc/arm-none-eabi/13.2.1/../../../arm-none-eabi/lib/thumb/v7e-m+fp/hard/libm.a(libm_a-w_atan2.o) (__ieee754_atan2)
/usr/lib/gcc/arm-none-eabi/13.2.1/../../../arm-none-eabi/lib/thumb/v7e-m+fp/hard/libm.a(libm_a-w_asin.o)
                              HARDWARE/libHARDWARE_LIB.a(inv_mpu.c.obj) (asin)
/usr/lib/gcc/arm-none-eabi/13.2.1/../../../arm-none-eabi/lib/thumb/v7e-m+fp/hard/libm.a(libm_a-s_atan.o)
                              /usr/lib/gcc/arm-none-eabi/13.2.1/../../../arm-none-eabi/lib/thumb/v7e-m+fp/hard/libm.a(libm_a-e_atan2.o) (atan)
/usr/lib/gcc/arm-none-eabi/13.2.1/../../../arm-none-eabi/lib/thumb/v7e-m+fp/hard/libm.a(libm_a-e_asin.o)
                              /usr/lib/gcc/arm-none-eabi/13.2.1/../../../arm-none-eabi/lib/thumb/v7e-m+fp/hard/libm.a(libm_a-w_asin.o) (__ieee754_asin)
/usr/lib/gcc/arm-none-eabi/13.2.1/../../../arm-none-eabi/lib/thumb/v7e-m+fp/hard/libm.a(libm_a-s_fabs.o)
                              /usr/lib/gcc/arm-none-eabi/13.2.1/../../../arm-none-eabi/lib/thumb/v7e-m+fp/hard/libm.a(libm_a-e_atan2.o) (fabs)
/usr/lib/gcc/arm-none-eabi/13.2.1/../../../arm-none-eabi/lib/thumb/v7e-m+fp/hard/libm.a(libm_a-s_nan.o)
                              /usr/lib/gcc/arm-none-eabi/13.2.1/../../../arm-none-eabi/lib/thumb/v7e-m+fp/hard/libm.a(libm_a-w_asin.o) (nan)
/usr/lib/gcc/arm-none-eabi/13.2.1/../../../arm-none-eabi/lib/thumb/v7e-m+fp/hard/libm.a(libm_a-e_sqrt.o)
                              /usr/lib/gcc/arm-none-eabi/13.2.1/../../../arm-none-eabi/lib/thumb/v7e-m+fp/hard/libm.a(libm_a-e_asin.o) (__ieee754_sqrt)

Discarded input sections

 .text          0x00000000        0x0 /usr/lib/gcc/arm-none-eabi/13.2.1/thumb/v7e-m+fp/hard/crti.o
 .data          0x00000000        0x0 /usr/lib/gcc/arm-none-eabi/13.2.1/thumb/v7e-m+fp/hard/crti.o
 .bss           0x00000000        0x0 /usr/lib/gcc/arm-none-eabi/13.2.1/thumb/v7e-m+fp/hard/crti.o
 .data          0x00000000        0x4 /usr/lib/gcc/arm-none-eabi/13.2.1/thumb/v7e-m+fp/hard/crtbegin.o
 .rodata        0x00000000       0x24 /usr/lib/gcc/arm-none-eabi/13.2.1/thumb/v7e-m+fp/hard/crtbegin.o
 .text          0x00000000       0x70 /usr/lib/gcc/arm-none-eabi/13.2.1/../../../arm-none-eabi/lib/thumb/v7e-m+fp/hard/crt0.o
 .data          0x00000000        0x0 /usr/lib/gcc/arm-none-eabi/13.2.1/../../../arm-none-eabi/lib/thumb/v7e-m+fp/hard/crt0.o
 .bss           0x00000000        0x0 /usr/lib/gcc/arm-none-eabi/13.2.1/../../../arm-none-eabi/lib/thumb/v7e-m+fp/hard/crt0.o
 .ARM.extab     0x00000000        0x0 /usr/lib/gcc/arm-none-eabi/13.2.1/../../../arm-none-eabi/lib/thumb/v7e-m+fp/hard/crt0.o
 .ARM.exidx     0x00000000       0x10 /usr/lib/gcc/arm-none-eabi/13.2.1/../../../arm-none-eabi/lib/thumb/v7e-m+fp/hard/crt0.o
 .debug_line    0x00000000       0x75 /usr/lib/gcc/arm-none-eabi/13.2.1/../../../arm-none-eabi/lib/thumb/v7e-m+fp/hard/crt0.o
 .debug_line_str
                0x00000000       0x82 /usr/lib/gcc/arm-none-eabi/13.2.1/../../../arm-none-eabi/lib/thumb/v7e-m+fp/hard/crt0.o
 .debug_info    0x00000000       0x24 /usr/lib/gcc/arm-none-eabi/13.2.1/../../../arm-none-eabi/lib/thumb/v7e-m+fp/hard/crt0.o
 .debug_abbrev  0x00000000       0x14 /usr/lib/gcc/arm-none-eabi/13.2.1/../../../arm-none-eabi/lib/thumb/v7e-m+fp/hard/crt0.o
 .debug_aranges
                0x00000000       0x20 /usr/lib/gcc/arm-none-eabi/13.2.1/../../../arm-none-eabi/lib/thumb/v7e-m+fp/hard/crt0.o
 .debug_str     0x00000000       0x8e /usr/lib/gcc/arm-none-eabi/13.2.1/../../../arm-none-eabi/lib/thumb/v7e-m+fp/hard/crt0.o
 .ARM.attributes
                0x00000000       0x20 /usr/lib/gcc/arm-none-eabi/13.2.1/../../../arm-none-eabi/lib/thumb/v7e-m+fp/hard/crt0.o
 .text          0x00000000        0x0 CMakeFiles/SMC.elf.dir/USER/main.c.obj
 .data          0x00000000        0x0 CMakeFiles/SMC.elf.dir/USER/main.c.obj
 .bss           0x00000000        0x0 CMakeFiles/SMC.elf.dir/USER/main.c.obj
 .bss.Task3_Project_Display_Time_Handle
                0x00000000        0x4 CMakeFiles/SMC.elf.dir/USER/main.c.obj
 .bss.Task3_Project_Display_MPU6050_Handle
                0x00000000        0x4 CMakeFiles/SMC.elf.dir/USER/main.c.obj
 .bss.Task1_SystemStart_Handle
                0x00000000        0x4 CMakeFiles/SMC.elf.dir/USER/main.c.obj
 .text          0x00000000        0x0 BSP/libBSP_LIB.a(sys.c.obj)
 .data          0x00000000        0x0 BSP/libBSP_LIB.a(sys.c.obj)
 .bss           0x00000000        0x0 BSP/libBSP_LIB.a(sys.c.obj)
 .text._open_r  0x00000000        0x2 BSP/libBSP_LIB.a(sys.c.obj)
 .text          0x00000000        0x0 BSP/libBSP_LIB.a(Serial.c.obj)
 .data          0x00000000        0x0 BSP/libBSP_LIB.a(Serial.c.obj)
 .bss           0x00000000        0x0 BSP/libBSP_LIB.a(Serial.c.obj)
 .text._write   0x00000000       0x34 BSP/libBSP_LIB.a(Serial.c.obj)
 .text.usart_send_string
                0x00000000       0x18 BSP/libBSP_LIB.a(Serial.c.obj)
 .text          0x00000000        0x0 BSP/libBSP_LIB.a(usart.c.obj)
 .data          0x00000000        0x0 BSP/libBSP_LIB.a(usart.c.obj)
 .bss           0x00000000        0x0 BSP/libBSP_LIB.a(usart.c.obj)
 .text          0x00000000        0x0 BSP/libBSP_LIB.a(gpio.c.obj)
 .data          0x00000000        0x0 BSP/libBSP_LIB.a(gpio.c.obj)
 .bss           0x00000000        0x0 BSP/libBSP_LIB.a(gpio.c.obj)
 .text.bsp_gpio_pin_set
                0x00000000       0x18 BSP/libBSP_LIB.a(gpio.c.obj)
 .text.bsp_gpio_pin_get
                0x00000000        0xe BSP/libBSP_LIB.a(gpio.c.obj)
 .text.GPIO_AF_Set
                0x00000000       0x32 BSP/libBSP_LIB.a(gpio.c.obj)
 .text          0x00000000        0x0 BSP/libBSP_LIB.a(stm32f4xx_gpio.c.obj)
 .data          0x00000000        0x0 BSP/libBSP_LIB.a(stm32f4xx_gpio.c.obj)
 .bss           0x00000000        0x0 BSP/libBSP_LIB.a(stm32f4xx_gpio.c.obj)
 .text.GPIO_DeInit
                0x00000000      0x144 BSP/libBSP_LIB.a(stm32f4xx_gpio.c.obj)
 .text.GPIO_StructInit
                0x00000000       0x12 BSP/libBSP_LIB.a(stm32f4xx_gpio.c.obj)
 .text.GPIO_PinLockConfig
                0x00000000       0x24 BSP/libBSP_LIB.a(stm32f4xx_gpio.c.obj)
 .text.GPIO_ReadInputData
                0x00000000        0x6 BSP/libBSP_LIB.a(stm32f4xx_gpio.c.obj)
 .text.GPIO_ReadOutputDataBit
                0x00000000        0xe BSP/libBSP_LIB.a(stm32f4xx_gpio.c.obj)
 .text.GPIO_ReadOutputData
                0x00000000        0x6 BSP/libBSP_LIB.a(stm32f4xx_gpio.c.obj)
 .text.GPIO_WriteBit
                0x00000000        0xc BSP/libBSP_LIB.a(stm32f4xx_gpio.c.obj)
 .text.GPIO_Write
                0x00000000        0x4 BSP/libBSP_LIB.a(stm32f4xx_gpio.c.obj)
 .text.GPIO_ToggleBits
                0x00000000        0x8 BSP/libBSP_LIB.a(stm32f4xx_gpio.c.obj)
 .text.GPIO_PinAFConfig
                0x00000000       0x32 BSP/libBSP_LIB.a(stm32f4xx_gpio.c.obj)
 .text          0x00000000        0x0 BSP/libBSP_LIB.a(misc.c.obj)
 .data          0x00000000        0x0 BSP/libBSP_LIB.a(misc.c.obj)
 .bss           0x00000000        0x0 BSP/libBSP_LIB.a(misc.c.obj)
 .text.NVIC_SetVectorTable
                0x00000000       0x14 BSP/libBSP_LIB.a(misc.c.obj)
 .text.NVIC_SystemLPConfig
                0x00000000       0x1c BSP/libBSP_LIB.a(misc.c.obj)
 .text.SysTick_CLKSourceConfig
                0x00000000       0x20 BSP/libBSP_LIB.a(misc.c.obj)
 .text          0x00000000        0x0 BSP/libBSP_LIB.a(stm32f4xx_rcc.c.obj)
 .data          0x00000000        0x0 BSP/libBSP_LIB.a(stm32f4xx_rcc.c.obj)
 .bss           0x00000000        0x0 BSP/libBSP_LIB.a(stm32f4xx_rcc.c.obj)
 .text.RCC_DeInit
                0x00000000       0x48 BSP/libBSP_LIB.a(stm32f4xx_rcc.c.obj)
 .text.RCC_HSEConfig
                0x00000000       0x10 BSP/libBSP_LIB.a(stm32f4xx_rcc.c.obj)
 .text.RCC_AdjustHSICalibrationValue
                0x00000000       0x14 BSP/libBSP_LIB.a(stm32f4xx_rcc.c.obj)
 .text.RCC_HSICmd
                0x00000000        0xc BSP/libBSP_LIB.a(stm32f4xx_rcc.c.obj)
 .text.RCC_LSEConfig
                0x00000000       0x30 BSP/libBSP_LIB.a(stm32f4xx_rcc.c.obj)
 .text.RCC_LSICmd
                0x00000000        0xc BSP/libBSP_LIB.a(stm32f4xx_rcc.c.obj)
 .text.RCC_PLLConfig
                0x00000000       0x20 BSP/libBSP_LIB.a(stm32f4xx_rcc.c.obj)
 .text.RCC_PLLCmd
                0x00000000        0xc BSP/libBSP_LIB.a(stm32f4xx_rcc.c.obj)
 .text.RCC_PLLI2SConfig
                0x00000000       0x18 BSP/libBSP_LIB.a(stm32f4xx_rcc.c.obj)
 .text.RCC_PLLI2SCmd
                0x00000000        0xc BSP/libBSP_LIB.a(stm32f4xx_rcc.c.obj)
 .text.RCC_PLLSAIConfig
                0x00000000       0x18 BSP/libBSP_LIB.a(stm32f4xx_rcc.c.obj)
 .text.RCC_PLLSAICmd
                0x00000000        0xc BSP/libBSP_LIB.a(stm32f4xx_rcc.c.obj)
 .text.RCC_ClockSecuritySystemCmd
                0x00000000        0xc BSP/libBSP_LIB.a(stm32f4xx_rcc.c.obj)
 .text.RCC_MCO1Config
                0x00000000       0x14 BSP/libBSP_LIB.a(stm32f4xx_rcc.c.obj)
 .text.RCC_MCO2Config
                0x00000000       0x14 BSP/libBSP_LIB.a(stm32f4xx_rcc.c.obj)
 .text.RCC_SYSCLKConfig
                0x00000000       0x14 BSP/libBSP_LIB.a(stm32f4xx_rcc.c.obj)
 .text.RCC_GetSYSCLKSource
                0x00000000       0x10 BSP/libBSP_LIB.a(stm32f4xx_rcc.c.obj)
 .text.RCC_HCLKConfig
                0x00000000       0x14 BSP/libBSP_LIB.a(stm32f4xx_rcc.c.obj)
 .text.RCC_PCLK1Config
                0x00000000       0x14 BSP/libBSP_LIB.a(stm32f4xx_rcc.c.obj)
 .text.RCC_PCLK2Config
                0x00000000       0x14 BSP/libBSP_LIB.a(stm32f4xx_rcc.c.obj)
 .text.RCC_GetClocksFreq
                0x00000000       0xb8 BSP/libBSP_LIB.a(stm32f4xx_rcc.c.obj)
 .text.RCC_RTCCLKConfig
                0x00000000       0x34 BSP/libBSP_LIB.a(stm32f4xx_rcc.c.obj)
 .text.RCC_RTCCLKCmd
                0x00000000        0xc BSP/libBSP_LIB.a(stm32f4xx_rcc.c.obj)
 .text.RCC_BackupResetCmd
                0x00000000        0xc BSP/libBSP_LIB.a(stm32f4xx_rcc.c.obj)
 .text.RCC_I2SCLKConfig
                0x00000000        0xc BSP/libBSP_LIB.a(stm32f4xx_rcc.c.obj)
 .text.RCC_SAIBlockACLKConfig
                0x00000000       0x18 BSP/libBSP_LIB.a(stm32f4xx_rcc.c.obj)
 .text.RCC_SAIBlockBCLKConfig
                0x00000000       0x18 BSP/libBSP_LIB.a(stm32f4xx_rcc.c.obj)
 .text.RCC_SAIPLLI2SClkDivConfig
                0x00000000       0x18 BSP/libBSP_LIB.a(stm32f4xx_rcc.c.obj)
 .text.RCC_SAIPLLSAIClkDivConfig
                0x00000000       0x1c BSP/libBSP_LIB.a(stm32f4xx_rcc.c.obj)
 .text.RCC_LTDCCLKDivConfig
                0x00000000       0x18 BSP/libBSP_LIB.a(stm32f4xx_rcc.c.obj)
 .text.RCC_TIMCLKPresConfig
                0x00000000        0xc BSP/libBSP_LIB.a(stm32f4xx_rcc.c.obj)
 .text.RCC_AHB2PeriphClockCmd
                0x00000000       0x1c BSP/libBSP_LIB.a(stm32f4xx_rcc.c.obj)
 .text.RCC_AHB3PeriphClockCmd
                0x00000000       0x1c BSP/libBSP_LIB.a(stm32f4xx_rcc.c.obj)
 .text.RCC_AHB1PeriphResetCmd
                0x00000000       0x1c BSP/libBSP_LIB.a(stm32f4xx_rcc.c.obj)
 .text.RCC_AHB2PeriphResetCmd
                0x00000000       0x1c BSP/libBSP_LIB.a(stm32f4xx_rcc.c.obj)
 .text.RCC_AHB3PeriphResetCmd
                0x00000000       0x1c BSP/libBSP_LIB.a(stm32f4xx_rcc.c.obj)
 .text.RCC_APB1PeriphResetCmd
                0x00000000       0x1c BSP/libBSP_LIB.a(stm32f4xx_rcc.c.obj)
 .text.RCC_APB2PeriphResetCmd
                0x00000000       0x1c BSP/libBSP_LIB.a(stm32f4xx_rcc.c.obj)
 .text.RCC_AHB1PeriphClockLPModeCmd
                0x00000000       0x1c BSP/libBSP_LIB.a(stm32f4xx_rcc.c.obj)
 .text.RCC_AHB2PeriphClockLPModeCmd
                0x00000000       0x1c BSP/libBSP_LIB.a(stm32f4xx_rcc.c.obj)
 .text.RCC_AHB3PeriphClockLPModeCmd
                0x00000000       0x1c BSP/libBSP_LIB.a(stm32f4xx_rcc.c.obj)
 .text.RCC_APB1PeriphClockLPModeCmd
                0x00000000       0x1c BSP/libBSP_LIB.a(stm32f4xx_rcc.c.obj)
 .text.RCC_APB2PeriphClockLPModeCmd
                0x00000000       0x1c BSP/libBSP_LIB.a(stm32f4xx_rcc.c.obj)
 .text.RCC_LSEModeConfig
                0x00000000       0x20 BSP/libBSP_LIB.a(stm32f4xx_rcc.c.obj)
 .text.RCC_ITConfig
                0x00000000       0x1c BSP/libBSP_LIB.a(stm32f4xx_rcc.c.obj)
 .text.RCC_GetFlagStatus
                0x00000000       0x34 BSP/libBSP_LIB.a(stm32f4xx_rcc.c.obj)
 .text.RCC_WaitForHSEStartUp
                0x00000000       0x30 BSP/libBSP_LIB.a(stm32f4xx_rcc.c.obj)
 .text.RCC_ClearFlag
                0x00000000       0x10 BSP/libBSP_LIB.a(stm32f4xx_rcc.c.obj)
 .text.RCC_GetITStatus
                0x00000000       0x14 BSP/libBSP_LIB.a(stm32f4xx_rcc.c.obj)
 .text.RCC_ClearITPendingBit
                0x00000000        0xc BSP/libBSP_LIB.a(stm32f4xx_rcc.c.obj)
 .rodata.APBAHBPrescTable
                0x00000000       0x10 BSP/libBSP_LIB.a(stm32f4xx_rcc.c.obj)
 .text          0x00000000        0x0 CORE/libCORE_LIB.a(stratup.c.obj)
 .data          0x00000000        0x0 CORE/libCORE_LIB.a(stratup.c.obj)
 .bss           0x00000000        0x0 CORE/libCORE_LIB.a(stratup.c.obj)
 .text          0x00000000        0x0 CORE/libCORE_LIB.a(system_stm32f4xx.c.obj)
 .data          0x00000000        0x0 CORE/libCORE_LIB.a(system_stm32f4xx.c.obj)
 .bss           0x00000000        0x0 CORE/libCORE_LIB.a(system_stm32f4xx.c.obj)
 .text.SystemCoreClockUpdate
                0x00000000       0xa4 CORE/libCORE_LIB.a(system_stm32f4xx.c.obj)
 .rodata.AHBPrescTable
                0x00000000       0x10 CORE/libCORE_LIB.a(system_stm32f4xx.c.obj)
 .text          0x00000000        0x0 HARDWARE/libHARDWARE_LIB.a(inv_mpu.c.obj)
 .data          0x00000000        0x0 HARDWARE/libHARDWARE_LIB.a(inv_mpu.c.obj)
 .bss           0x00000000        0x0 HARDWARE/libHARDWARE_LIB.a(inv_mpu.c.obj)
 .text.get_accel_prod_shift
                0x00000000       0xcc HARDWARE/libHARDWARE_LIB.a(inv_mpu.c.obj)
 .text.accel_self_test
                0x00000000       0xac HARDWARE/libHARDWARE_LIB.a(inv_mpu.c.obj)
 .text.gyro_self_test
                0x00000000      0x104 HARDWARE/libHARDWARE_LIB.a(inv_mpu.c.obj)
 .text.get_st_biases
                0x00000000      0x428 HARDWARE/libHARDWARE_LIB.a(inv_mpu.c.obj)
 .rodata.mpu_reg_dump.str1.4
                0x00000000        0xd HARDWARE/libHARDWARE_LIB.a(inv_mpu.c.obj)
 .text.mpu_reg_dump
                0x00000000       0x58 HARDWARE/libHARDWARE_LIB.a(inv_mpu.c.obj)
 .text.mpu_read_reg
                0x00000000       0x40 HARDWARE/libHARDWARE_LIB.a(inv_mpu.c.obj)
 .text.mpu_get_gyro_reg
                0x00000000       0x64 HARDWARE/libHARDWARE_LIB.a(inv_mpu.c.obj)
 .text.mpu_get_accel_reg
                0x00000000       0x64 HARDWARE/libHARDWARE_LIB.a(inv_mpu.c.obj)
 .text.mpu_get_temperature
                0x00000000       0x80 HARDWARE/libHARDWARE_LIB.a(inv_mpu.c.obj)
 .text.mpu_set_accel_bias
                0x00000000      0x14c HARDWARE/libHARDWARE_LIB.a(inv_mpu.c.obj)
 .text.mpu_get_gyro_fsr
                0x00000000       0x3c HARDWARE/libHARDWARE_LIB.a(inv_mpu.c.obj)
 .text.mpu_get_lpf
                0x00000000       0x44 HARDWARE/libHARDWARE_LIB.a(inv_mpu.c.obj)
 .text.mpu_get_sample_rate
                0x00000000       0x1c HARDWARE/libHARDWARE_LIB.a(inv_mpu.c.obj)
 .text.mpu_get_compass_sample_rate
                0x00000000        0xa HARDWARE/libHARDWARE_LIB.a(inv_mpu.c.obj)
 .text.mpu_set_compass_sample_rate
                0x00000000        0x6 HARDWARE/libHARDWARE_LIB.a(inv_mpu.c.obj)
 .text.mpu_get_gyro_sens
                0x00000000       0x4c HARDWARE/libHARDWARE_LIB.a(inv_mpu.c.obj)
 .text.mpu_get_accel_sens
                0x00000000       0x4c HARDWARE/libHARDWARE_LIB.a(inv_mpu.c.obj)
 .text.mpu_get_fifo_config
                0x00000000       0x10 HARDWARE/libHARDWARE_LIB.a(inv_mpu.c.obj)
 .text.mpu_get_power_state
                0x00000000       0x18 HARDWARE/libHARDWARE_LIB.a(inv_mpu.c.obj)
 .text.mpu_get_int_status
                0x00000000       0x44 HARDWARE/libHARDWARE_LIB.a(inv_mpu.c.obj)
 .text.mpu_read_fifo
                0x00000000      0x200 HARDWARE/libHARDWARE_LIB.a(inv_mpu.c.obj)
 .text.mpu_set_int_level
                0x00000000       0x10 HARDWARE/libHARDWARE_LIB.a(inv_mpu.c.obj)
 .text.mpu_run_self_test
                0x00000000      0x104 HARDWARE/libHARDWARE_LIB.a(inv_mpu.c.obj)
 .text.mpu_get_dmp_state
                0x00000000       0x10 HARDWARE/libHARDWARE_LIB.a(inv_mpu.c.obj)
 .text.setup_compass
                0x00000000        0x6 HARDWARE/libHARDWARE_LIB.a(inv_mpu.c.obj)
 .text.mpu_get_compass_reg
                0x00000000        0x6 HARDWARE/libHARDWARE_LIB.a(inv_mpu.c.obj)
 .text.mpu_get_compass_fsr
                0x00000000        0x6 HARDWARE/libHARDWARE_LIB.a(inv_mpu.c.obj)
 .text.mpu_lp_motion_interrupt
                0x00000000      0x1e8 HARDWARE/libHARDWARE_LIB.a(inv_mpu.c.obj)
 .text.run_self_test
                0x00000000       0x92 HARDWARE/libHARDWARE_LIB.a(inv_mpu.c.obj)
 .text          0x00000000        0x0 HARDWARE/libHARDWARE_LIB.a(inv_mpu_dmp_motion_driver.c.obj)
 .data          0x00000000        0x0 HARDWARE/libHARDWARE_LIB.a(inv_mpu_dmp_motion_driver.c.obj)
 .bss           0x00000000        0x0 HARDWARE/libHARDWARE_LIB.a(inv_mpu_dmp_motion_driver.c.obj)
 .text.dmp_set_gyro_bias
                0x00000000      0x110 HARDWARE/libHARDWARE_LIB.a(inv_mpu_dmp_motion_driver.c.obj)
 .text.dmp_set_accel_bias
                0x00000000       0xf4 HARDWARE/libHARDWARE_LIB.a(inv_mpu_dmp_motion_driver.c.obj)
 .text.dmp_get_fifo_rate
                0x00000000       0x10 HARDWARE/libHARDWARE_LIB.a(inv_mpu_dmp_motion_driver.c.obj)
 .text.dmp_get_pedometer_step_count
                0x00000000       0x44 HARDWARE/libHARDWARE_LIB.a(inv_mpu_dmp_motion_driver.c.obj)
 .text.dmp_set_pedometer_step_count
                0x00000000       0x30 HARDWARE/libHARDWARE_LIB.a(inv_mpu_dmp_motion_driver.c.obj)
 .text.dmp_get_pedometer_walk_time
                0x00000000       0x4a HARDWARE/libHARDWARE_LIB.a(inv_mpu_dmp_motion_driver.c.obj)
 .text.dmp_set_pedometer_walk_time
                0x00000000       0x40 HARDWARE/libHARDWARE_LIB.a(inv_mpu_dmp_motion_driver.c.obj)
 .text.dmp_get_enabled_features
                0x00000000       0x10 HARDWARE/libHARDWARE_LIB.a(inv_mpu_dmp_motion_driver.c.obj)
 .rodata.dmp_set_interrupt_mode.str1.4
                0x00000000       0x18 HARDWARE/libHARDWARE_LIB.a(inv_mpu_dmp_motion_driver.c.obj)
 .text.dmp_set_interrupt_mode
                0x00000000       0x60 HARDWARE/libHARDWARE_LIB.a(inv_mpu_dmp_motion_driver.c.obj)
 .text.dmp_register_tap_cb
                0x00000000        0xc HARDWARE/libHARDWARE_LIB.a(inv_mpu_dmp_motion_driver.c.obj)
 .text.dmp_register_android_orient_cb
                0x00000000        0xc HARDWARE/libHARDWARE_LIB.a(inv_mpu_dmp_motion_driver.c.obj)
 .text          0x00000000        0x0 HARDWARE/libHARDWARE_LIB.a(OLED.c.obj)
 .data          0x00000000        0x0 HARDWARE/libHARDWARE_LIB.a(OLED.c.obj)
 .bss           0x00000000        0x0 HARDWARE/libHARDWARE_LIB.a(OLED.c.obj)
 .text.OLED_Pow
                0x00000000       0x14 HARDWARE/libHARDWARE_LIB.a(OLED.c.obj)
 .text.OLED_pnpoly
                0x00000000       0x70 HARDWARE/libHARDWARE_LIB.a(OLED.c.obj)
 .text.OLED_IsInAngle
                0x00000000       0x84 HARDWARE/libHARDWARE_LIB.a(OLED.c.obj)
 .text.OLED_UpdateArea
                0x00000000       0x68 HARDWARE/libHARDWARE_LIB.a(OLED.c.obj)
 .text.OLED_Reverse
                0x00000000       0x2c HARDWARE/libHARDWARE_LIB.a(OLED.c.obj)
 .text.OLED_ReverseArea
                0x00000000       0x80 HARDWARE/libHARDWARE_LIB.a(OLED.c.obj)
 .text.OLED_ShowNum
                0x00000000       0x58 HARDWARE/libHARDWARE_LIB.a(OLED.c.obj)
 .text.OLED_ShowSignedNum
                0x00000000       0x74 HARDWARE/libHARDWARE_LIB.a(OLED.c.obj)
 .text.OLED_ShowHexNum
                0x00000000       0x58 HARDWARE/libHARDWARE_LIB.a(OLED.c.obj)
 .text.OLED_ShowBinNum
                0x00000000       0x44 HARDWARE/libHARDWARE_LIB.a(OLED.c.obj)
 .text.OLED_ShowFloatNum
                0x00000000       0xce HARDWARE/libHARDWARE_LIB.a(OLED.c.obj)
 .text.OLED_GetPoint
                0x00000000       0x50 HARDWARE/libHARDWARE_LIB.a(OLED.c.obj)
 .text.OLED_DrawLine
                0x00000000      0x150 HARDWARE/libHARDWARE_LIB.a(OLED.c.obj)
 .text.OLED_DrawTriangle
                0x00000000       0xc2 HARDWARE/libHARDWARE_LIB.a(OLED.c.obj)
 .text.OLED_DrawCircle
                0x00000000      0x18c HARDWARE/libHARDWARE_LIB.a(OLED.c.obj)
 .text.OLED_DrawEllipse
                0x00000000      0x338 HARDWARE/libHARDWARE_LIB.a(OLED.c.obj)
 .text.OLED_DrawArc
                0x00000000      0x30e HARDWARE/libHARDWARE_LIB.a(OLED.c.obj)
 .text          0x00000000        0x0 HARDWARE/libHARDWARE_LIB.a(OLED_Data.c.obj)
 .data          0x00000000        0x0 HARDWARE/libHARDWARE_LIB.a(OLED_Data.c.obj)
 .bss           0x00000000        0x0 HARDWARE/libHARDWARE_LIB.a(OLED_Data.c.obj)
 .rodata.Diode  0x00000000       0x20 HARDWARE/libHARDWARE_LIB.a(OLED_Data.c.obj)
 .text          0x00000000        0x0 HARDWARE/libHARDWARE_LIB.a(sdram.c.obj)
 .data          0x00000000        0x0 HARDWARE/libHARDWARE_LIB.a(sdram.c.obj)
 .bss           0x00000000        0x0 HARDWARE/libHARDWARE_LIB.a(sdram.c.obj)
 .text.FMC_SDRAM_WriteBuffer
                0x00000000       0x18 HARDWARE/libHARDWARE_LIB.a(sdram.c.obj)
 .text.FMC_SDRAM_ReadBuffer
                0x00000000       0x16 HARDWARE/libHARDWARE_LIB.a(sdram.c.obj)
 .text          0x00000000        0x0 Project/libProject_LIB.a(adc.c.obj)
 .data          0x00000000        0x0 Project/libProject_LIB.a(adc.c.obj)
 .bss           0x00000000        0x0 Project/libProject_LIB.a(adc.c.obj)
 .text          0x00000000        0x0 Project/libProject_LIB.a(stm32f4xx_adc.c.obj)
 .data          0x00000000        0x0 Project/libProject_LIB.a(stm32f4xx_adc.c.obj)
 .bss           0x00000000        0x0 Project/libProject_LIB.a(stm32f4xx_adc.c.obj)
 .text.ADC_DeInit
                0x00000000       0x18 Project/libProject_LIB.a(stm32f4xx_adc.c.obj)
 .text.ADC_StructInit
                0x00000000       0x14 Project/libProject_LIB.a(stm32f4xx_adc.c.obj)
 .text.ADC_CommonStructInit
                0x00000000        0xc Project/libProject_LIB.a(stm32f4xx_adc.c.obj)
 .text.ADC_AnalogWatchdogCmd
                0x00000000       0x10 Project/libProject_LIB.a(stm32f4xx_adc.c.obj)
 .text.ADC_AnalogWatchdogThresholdsConfig
                0x00000000        0x6 Project/libProject_LIB.a(stm32f4xx_adc.c.obj)
 .text.ADC_AnalogWatchdogSingleChannelConfig
                0x00000000        0xc Project/libProject_LIB.a(stm32f4xx_adc.c.obj)
 .text.ADC_TempSensorVrefintCmd
                0x00000000       0x20 Project/libProject_LIB.a(stm32f4xx_adc.c.obj)
 .text.ADC_VBATCmd
                0x00000000       0x20 Project/libProject_LIB.a(stm32f4xx_adc.c.obj)
 .text.ADC_GetSoftwareStartConvStatus
                0x00000000       0x10 Project/libProject_LIB.a(stm32f4xx_adc.c.obj)
 .text.ADC_EOCOnEachRegularChannelCmd
                0x00000000       0x16 Project/libProject_LIB.a(stm32f4xx_adc.c.obj)
 .text.ADC_ContinuousModeCmd
                0x00000000       0x16 Project/libProject_LIB.a(stm32f4xx_adc.c.obj)
 .text.ADC_DiscModeChannelCountConfig
                0x00000000       0x10 Project/libProject_LIB.a(stm32f4xx_adc.c.obj)
 .text.ADC_DiscModeCmd
                0x00000000       0x16 Project/libProject_LIB.a(stm32f4xx_adc.c.obj)
 .text.ADC_GetMultiModeConversionValue
                0x00000000        0xc Project/libProject_LIB.a(stm32f4xx_adc.c.obj)
 .text.ADC_DMACmd
                0x00000000       0x16 Project/libProject_LIB.a(stm32f4xx_adc.c.obj)
 .text.ADC_DMARequestAfterLastTransferCmd
                0x00000000       0x16 Project/libProject_LIB.a(stm32f4xx_adc.c.obj)
 .text.ADC_MultiModeDMARequestAfterLastTransferCmd
                0x00000000       0x20 Project/libProject_LIB.a(stm32f4xx_adc.c.obj)
 .text.ADC_InjectedChannelConfig
                0x00000000       0x64 Project/libProject_LIB.a(stm32f4xx_adc.c.obj)
 .text.ADC_InjectedSequencerLengthConfig
                0x00000000       0x10 Project/libProject_LIB.a(stm32f4xx_adc.c.obj)
 .text.ADC_SetInjectedOffset
                0x00000000       0x16 Project/libProject_LIB.a(stm32f4xx_adc.c.obj)
 .text.ADC_ExternalTrigInjectedConvConfig
                0x00000000        0xc Project/libProject_LIB.a(stm32f4xx_adc.c.obj)
 .text.ADC_ExternalTrigInjectedConvEdgeConfig
                0x00000000        0xc Project/libProject_LIB.a(stm32f4xx_adc.c.obj)
 .text.ADC_SoftwareStartInjectedConv
                0x00000000        0xa Project/libProject_LIB.a(stm32f4xx_adc.c.obj)
 .text.ADC_GetSoftwareStartInjectedConvCmdStatus
                0x00000000       0x10 Project/libProject_LIB.a(stm32f4xx_adc.c.obj)
 .text.ADC_AutoInjectedConvCmd
                0x00000000       0x16 Project/libProject_LIB.a(stm32f4xx_adc.c.obj)
 .text.ADC_InjectedDiscModeCmd
                0x00000000       0x16 Project/libProject_LIB.a(stm32f4xx_adc.c.obj)
 .text.ADC_GetInjectedConversionValue
                0x00000000       0x1a Project/libProject_LIB.a(stm32f4xx_adc.c.obj)
 .text.ADC_ITConfig
                0x00000000       0x1a Project/libProject_LIB.a(stm32f4xx_adc.c.obj)
 .text.ADC_GetFlagStatus
                0x00000000        0xe Project/libProject_LIB.a(stm32f4xx_adc.c.obj)
 .text.ADC_ClearFlag
                0x00000000        0x6 Project/libProject_LIB.a(stm32f4xx_adc.c.obj)
 .text.ADC_GetITStatus
                0x00000000       0x24 Project/libProject_LIB.a(stm32f4xx_adc.c.obj)
 .text.ADC_ClearITPendingBit
                0x00000000        0x8 Project/libProject_LIB.a(stm32f4xx_adc.c.obj)
 .text          0x00000000        0x0 Project/libProject_LIB.a(hw201.c.obj)
 .data          0x00000000        0x0 Project/libProject_LIB.a(hw201.c.obj)
 .bss           0x00000000        0x0 Project/libProject_LIB.a(hw201.c.obj)
 .text          0x00000000        0x0 Project/libProject_LIB.a(key.c.obj)
 .data          0x00000000        0x0 Project/libProject_LIB.a(key.c.obj)
 .bss           0x00000000        0x0 Project/libProject_LIB.a(key.c.obj)
 .text          0x00000000        0x0 Project/libProject_LIB.a(led.c.obj)
 .data          0x00000000        0x0 Project/libProject_LIB.a(led.c.obj)
 .bss           0x00000000        0x0 Project/libProject_LIB.a(led.c.obj)
 .text          0x00000000        0x0 Project/libProject_LIB.a(pwm.c.obj)
 .data          0x00000000        0x0 Project/libProject_LIB.a(pwm.c.obj)
 .bss           0x00000000        0x0 Project/libProject_LIB.a(pwm.c.obj)
 .text          0x00000000        0x0 Project/libProject_LIB.a(stm32f4xx_tim.c.obj)
 .data          0x00000000        0x0 Project/libProject_LIB.a(stm32f4xx_tim.c.obj)
 .bss           0x00000000        0x0 Project/libProject_LIB.a(stm32f4xx_tim.c.obj)
 .text.TI1_Config
                0x00000000       0x4c Project/libProject_LIB.a(stm32f4xx_tim.c.obj)
 .text.TI2_Config
                0x00000000       0x56 Project/libProject_LIB.a(stm32f4xx_tim.c.obj)
 .text.TI3_Config
                0x00000000       0x50 Project/libProject_LIB.a(stm32f4xx_tim.c.obj)
 .text.TI4_Config
                0x00000000       0x58 Project/libProject_LIB.a(stm32f4xx_tim.c.obj)
 .text.TIM_DeInit
                0x00000000      0x198 Project/libProject_LIB.a(stm32f4xx_tim.c.obj)
 .text.TIM_TimeBaseStructInit
                0x00000000       0x12 Project/libProject_LIB.a(stm32f4xx_tim.c.obj)
 .text.TIM_PrescalerConfig
                0x00000000        0x6 Project/libProject_LIB.a(stm32f4xx_tim.c.obj)
 .text.TIM_CounterModeConfig
                0x00000000        0xe Project/libProject_LIB.a(stm32f4xx_tim.c.obj)
 .text.TIM_SetCounter
                0x00000000        0x4 Project/libProject_LIB.a(stm32f4xx_tim.c.obj)
 .text.TIM_SetAutoreload
                0x00000000        0x4 Project/libProject_LIB.a(stm32f4xx_tim.c.obj)
 .text.TIM_GetCounter
                0x00000000        0x4 Project/libProject_LIB.a(stm32f4xx_tim.c.obj)
 .text.TIM_GetPrescaler
                0x00000000        0x6 Project/libProject_LIB.a(stm32f4xx_tim.c.obj)
 .text.TIM_UpdateDisableConfig
                0x00000000       0x1c Project/libProject_LIB.a(stm32f4xx_tim.c.obj)
 .text.TIM_UpdateRequestConfig
                0x00000000       0x1c Project/libProject_LIB.a(stm32f4xx_tim.c.obj)
 .text.TIM_ARRPreloadConfig
                0x00000000       0x1c Project/libProject_LIB.a(stm32f4xx_tim.c.obj)
 .text.TIM_SelectOnePulseMode
                0x00000000       0x16 Project/libProject_LIB.a(stm32f4xx_tim.c.obj)
 .text.TIM_SetClockDivision
                0x00000000       0x16 Project/libProject_LIB.a(stm32f4xx_tim.c.obj)
 .text.TIM_OC3Init
                0x00000000       0x94 Project/libProject_LIB.a(stm32f4xx_tim.c.obj)
 .text.TIM_OC4Init
                0x00000000       0x7c Project/libProject_LIB.a(stm32f4xx_tim.c.obj)
 .text.TIM_OCStructInit
                0x00000000       0x14 Project/libProject_LIB.a(stm32f4xx_tim.c.obj)
 .text.TIM_SelectOCxM
                0x00000000       0x66 Project/libProject_LIB.a(stm32f4xx_tim.c.obj)
 .text.TIM_SetCompare1
                0x00000000        0x4 Project/libProject_LIB.a(stm32f4xx_tim.c.obj)
 .text.TIM_SetCompare2
                0x00000000        0x4 Project/libProject_LIB.a(stm32f4xx_tim.c.obj)
 .text.TIM_SetCompare3
                0x00000000        0x4 Project/libProject_LIB.a(stm32f4xx_tim.c.obj)
 .text.TIM_SetCompare4
                0x00000000        0x4 Project/libProject_LIB.a(stm32f4xx_tim.c.obj)
 .text.TIM_ForcedOC1Config
                0x00000000        0xe Project/libProject_LIB.a(stm32f4xx_tim.c.obj)
 .text.TIM_ForcedOC2Config
                0x00000000       0x12 Project/libProject_LIB.a(stm32f4xx_tim.c.obj)
 .text.TIM_ForcedOC3Config
                0x00000000        0xe Project/libProject_LIB.a(stm32f4xx_tim.c.obj)
 .text.TIM_ForcedOC4Config
                0x00000000       0x12 Project/libProject_LIB.a(stm32f4xx_tim.c.obj)
 .text.TIM_OC1PreloadConfig
                0x00000000        0xe Project/libProject_LIB.a(stm32f4xx_tim.c.obj)
 .text.TIM_OC2PreloadConfig
                0x00000000       0x12 Project/libProject_LIB.a(stm32f4xx_tim.c.obj)
 .text.TIM_OC3PreloadConfig
                0x00000000        0xe Project/libProject_LIB.a(stm32f4xx_tim.c.obj)
 .text.TIM_OC4PreloadConfig
                0x00000000       0x12 Project/libProject_LIB.a(stm32f4xx_tim.c.obj)
 .text.TIM_OC1FastConfig
                0x00000000        0xe Project/libProject_LIB.a(stm32f4xx_tim.c.obj)
 .text.TIM_OC2FastConfig
                0x00000000       0x12 Project/libProject_LIB.a(stm32f4xx_tim.c.obj)
 .text.TIM_OC3FastConfig
                0x00000000        0xe Project/libProject_LIB.a(stm32f4xx_tim.c.obj)
 .text.TIM_OC4FastConfig
                0x00000000       0x12 Project/libProject_LIB.a(stm32f4xx_tim.c.obj)
 .text.TIM_ClearOC1Ref
                0x00000000        0xe Project/libProject_LIB.a(stm32f4xx_tim.c.obj)
 .text.TIM_ClearOC2Ref
                0x00000000       0x10 Project/libProject_LIB.a(stm32f4xx_tim.c.obj)
 .text.TIM_ClearOC3Ref
                0x00000000        0xe Project/libProject_LIB.a(stm32f4xx_tim.c.obj)
 .text.TIM_ClearOC4Ref
                0x00000000       0x10 Project/libProject_LIB.a(stm32f4xx_tim.c.obj)
 .text.TIM_OC1PolarityConfig
                0x00000000        0xe Project/libProject_LIB.a(stm32f4xx_tim.c.obj)
 .text.TIM_OC1NPolarityConfig
                0x00000000        0xe Project/libProject_LIB.a(stm32f4xx_tim.c.obj)
 .text.TIM_OC2PolarityConfig
                0x00000000       0x12 Project/libProject_LIB.a(stm32f4xx_tim.c.obj)
 .text.TIM_OC2NPolarityConfig
                0x00000000       0x12 Project/libProject_LIB.a(stm32f4xx_tim.c.obj)
 .text.TIM_OC3PolarityConfig
                0x00000000       0x12 Project/libProject_LIB.a(stm32f4xx_tim.c.obj)
 .text.TIM_OC3NPolarityConfig
                0x00000000       0x12 Project/libProject_LIB.a(stm32f4xx_tim.c.obj)
 .text.TIM_OC4PolarityConfig
                0x00000000       0x12 Project/libProject_LIB.a(stm32f4xx_tim.c.obj)
 .text.TIM_CCxCmd
                0x00000000       0x22 Project/libProject_LIB.a(stm32f4xx_tim.c.obj)
 .text.TIM_CCxNCmd
                0x00000000       0x22 Project/libProject_LIB.a(stm32f4xx_tim.c.obj)
 .text.TIM_ICStructInit
                0x00000000       0x10 Project/libProject_LIB.a(stm32f4xx_tim.c.obj)
 .text.TIM_GetCapture1
                0x00000000        0x4 Project/libProject_LIB.a(stm32f4xx_tim.c.obj)
 .text.TIM_GetCapture2
                0x00000000        0x4 Project/libProject_LIB.a(stm32f4xx_tim.c.obj)
 .text.TIM_GetCapture3
                0x00000000        0x4 Project/libProject_LIB.a(stm32f4xx_tim.c.obj)
 .text.TIM_GetCapture4
                0x00000000        0x4 Project/libProject_LIB.a(stm32f4xx_tim.c.obj)
 .text.TIM_SetIC1Prescaler
                0x00000000       0x16 Project/libProject_LIB.a(stm32f4xx_tim.c.obj)
 .text.TIM_SetIC2Prescaler
                0x00000000       0x1a Project/libProject_LIB.a(stm32f4xx_tim.c.obj)
 .text.TIM_PWMIConfig
                0x00000000       0x6c Project/libProject_LIB.a(stm32f4xx_tim.c.obj)
 .text.TIM_SetIC3Prescaler
                0x00000000       0x16 Project/libProject_LIB.a(stm32f4xx_tim.c.obj)
 .text.TIM_SetIC4Prescaler
                0x00000000       0x1a Project/libProject_LIB.a(stm32f4xx_tim.c.obj)
 .text.TIM_ICInit
                0x00000000       0x62 Project/libProject_LIB.a(stm32f4xx_tim.c.obj)
 .text.TIM_BDTRConfig
                0x00000000       0x2c Project/libProject_LIB.a(stm32f4xx_tim.c.obj)
 .text.TIM_BDTRStructInit
                0x00000000       0x12 Project/libProject_LIB.a(stm32f4xx_tim.c.obj)
 .text.TIM_SelectCOM
                0x00000000       0x1c Project/libProject_LIB.a(stm32f4xx_tim.c.obj)
 .text.TIM_CCPreloadControl
                0x00000000       0x1c Project/libProject_LIB.a(stm32f4xx_tim.c.obj)
 .text.TIM_GenerateEvent
                0x00000000        0x4 Project/libProject_LIB.a(stm32f4xx_tim.c.obj)
 .text.TIM_GetFlagStatus
                0x00000000        0xe Project/libProject_LIB.a(stm32f4xx_tim.c.obj)
 .text.TIM_DMAConfig
                0x00000000        0x8 Project/libProject_LIB.a(stm32f4xx_tim.c.obj)
 .text.TIM_DMACmd
                0x00000000       0x18 Project/libProject_LIB.a(stm32f4xx_tim.c.obj)
 .text.TIM_SelectCCDMA
                0x00000000       0x1c Project/libProject_LIB.a(stm32f4xx_tim.c.obj)
 .text.TIM_InternalClockConfig
                0x00000000        0xe Project/libProject_LIB.a(stm32f4xx_tim.c.obj)
 .text.TIM_SelectInputTrigger
                0x00000000        0xe Project/libProject_LIB.a(stm32f4xx_tim.c.obj)
 .text.TIM_ITRxExternalClockConfig
                0x00000000       0x14 Project/libProject_LIB.a(stm32f4xx_tim.c.obj)
 .text.TIM_TIxExternalClockConfig
                0x00000000       0x2e Project/libProject_LIB.a(stm32f4xx_tim.c.obj)
 .text.TIM_SelectOutputTrigger
                0x00000000       0x16 Project/libProject_LIB.a(stm32f4xx_tim.c.obj)
 .text.TIM_SelectSlaveMode
                0x00000000       0x16 Project/libProject_LIB.a(stm32f4xx_tim.c.obj)
 .text.TIM_SelectMasterSlaveMode
                0x00000000       0x16 Project/libProject_LIB.a(stm32f4xx_tim.c.obj)
 .text.TIM_ETRConfig
                0x00000000       0x18 Project/libProject_LIB.a(stm32f4xx_tim.c.obj)
 .text.TIM_ETRClockMode1Config
                0x00000000       0x14 Project/libProject_LIB.a(stm32f4xx_tim.c.obj)
 .text.TIM_ETRClockMode2Config
                0x00000000       0x14 Project/libProject_LIB.a(stm32f4xx_tim.c.obj)
 .text.TIM_SelectHallSensor
                0x00000000       0x1c Project/libProject_LIB.a(stm32f4xx_tim.c.obj)
 .text.TIM_RemapConfig
                0x00000000        0x6 Project/libProject_LIB.a(stm32f4xx_tim.c.obj)
 .text          0x00000000        0x0 Project/libProject_LIB.a(tb6612_port.c.obj)
 .data          0x00000000        0x0 Project/libProject_LIB.a(tb6612_port.c.obj)
 .bss           0x00000000        0x0 Project/libProject_LIB.a(tb6612_port.c.obj)
 .text          0x00000000        0x0 Project/libProject_LIB.a(ControlTask.c.obj)
 .data          0x00000000        0x0 Project/libProject_LIB.a(ControlTask.c.obj)
 .bss           0x00000000        0x0 Project/libProject_LIB.a(ControlTask.c.obj)
 .text.PID_Update
                0x00000000       0x5c Project/libProject_LIB.a(ControlTask.c.obj)
 .text.Project_LIB_ControlTask
                0x00000000       0x40 Project/libProject_LIB.a(ControlTask.c.obj)
 .text.Project_LIB_ControlHelp
                0x00000000        0x2 Project/libProject_LIB.a(ControlTask.c.obj)
 .bss.pidForLine.0
                0x00000000       0x38 Project/libProject_LIB.a(ControlTask.c.obj)
 .text          0x00000000        0x0 Project/libProject_LIB.a(control.c.obj)
 .data          0x00000000        0x0 Project/libProject_LIB.a(control.c.obj)
 .bss           0x00000000        0x0 Project/libProject_LIB.a(control.c.obj)
 .text.PID_Update
                0x00000000       0x5c Project/libProject_LIB.a(control.c.obj)
 .text.PID_forLine
                0x00000000       0x68 Project/libProject_LIB.a(control.c.obj)
 .text.PID_forTurn
                0x00000000        0x2 Project/libProject_LIB.a(control.c.obj)
 .debug_info    0x00000000      0x334 Project/libProject_LIB.a(control.c.obj)
 .debug_abbrev  0x00000000      0x160 Project/libProject_LIB.a(control.c.obj)
 .debug_loclists
                0x00000000       0x20 Project/libProject_LIB.a(control.c.obj)
 .debug_aranges
                0x00000000       0x30 Project/libProject_LIB.a(control.c.obj)
 .debug_rnglists
                0x00000000       0x1f Project/libProject_LIB.a(control.c.obj)
 .debug_line    0x00000000      0x2a7 Project/libProject_LIB.a(control.c.obj)
 .debug_str     0x00000000      0x34b Project/libProject_LIB.a(control.c.obj)
 .comment       0x00000000       0x27 Project/libProject_LIB.a(control.c.obj)
 .debug_frame   0x00000000       0x5c Project/libProject_LIB.a(control.c.obj)
 .ARM.attributes
                0x00000000       0x34 Project/libProject_LIB.a(control.c.obj)
 .text          0x00000000        0x0 Project/libProject_LIB.a(pid.c.obj)
 .data          0x00000000        0x0 Project/libProject_LIB.a(pid.c.obj)
 .bss           0x00000000        0x0 Project/libProject_LIB.a(pid.c.obj)
 .text.PID_Update
                0x00000000       0x5c Project/libProject_LIB.a(pid.c.obj)
 .text.PID_TypeStructInit
                0x00000000       0x40 Project/libProject_LIB.a(pid.c.obj)
 .debug_info    0x00000000      0x210 Project/libProject_LIB.a(pid.c.obj)
 .debug_abbrev  0x00000000      0x110 Project/libProject_LIB.a(pid.c.obj)
 .debug_loclists
                0x00000000       0x8a Project/libProject_LIB.a(pid.c.obj)
 .debug_aranges
                0x00000000       0x28 Project/libProject_LIB.a(pid.c.obj)
 .debug_rnglists
                0x00000000       0x19 Project/libProject_LIB.a(pid.c.obj)
 .debug_line    0x00000000      0x1d3 Project/libProject_LIB.a(pid.c.obj)
 .debug_str     0x00000000      0x28e Project/libProject_LIB.a(pid.c.obj)
 .comment       0x00000000       0x27 Project/libProject_LIB.a(pid.c.obj)
 .debug_frame   0x00000000       0x54 Project/libProject_LIB.a(pid.c.obj)
 .ARM.attributes
                0x00000000       0x34 Project/libProject_LIB.a(pid.c.obj)
 .text          0x00000000        0x0 Project/libProject_LIB.a(tools.c.obj)
 .data          0x00000000        0x0 Project/libProject_LIB.a(tools.c.obj)
 .bss           0x00000000        0x0 Project/libProject_LIB.a(tools.c.obj)
 .text.Project_LIB_Get_Encoder_Value
                0x00000000       0x18 Project/libProject_LIB.a(tools.c.obj)
 .text.Project_LIB_Motor_Load
                0x00000000      0x110 Project/libProject_LIB.a(tools.c.obj)
 .text          0x00000000        0x0 RTOS/libRTOS_LIB.a(tasks.c.obj)
 .data          0x00000000        0x0 RTOS/libRTOS_LIB.a(tasks.c.obj)
 .bss           0x00000000        0x0 RTOS/libRTOS_LIB.a(tasks.c.obj)
 .text.prvTaskIsTaskSuspended
                0x00000000       0x2c RTOS/libRTOS_LIB.a(tasks.c.obj)
 .text.prvTaskCheckFreeStackSpace
                0x00000000       0x14 RTOS/libRTOS_LIB.a(tasks.c.obj)
 .text.vTaskDelete
                0x00000000       0xd4 RTOS/libRTOS_LIB.a(tasks.c.obj)
 .text.eTaskGetState
                0x00000000       0x88 RTOS/libRTOS_LIB.a(tasks.c.obj)
 .text.uxTaskPriorityGet
                0x00000000       0x20 RTOS/libRTOS_LIB.a(tasks.c.obj)
 .text.uxTaskPriorityGetFromISR
                0x00000000       0x30 RTOS/libRTOS_LIB.a(tasks.c.obj)
 .text.vTaskPrioritySet
                0x00000000       0xf0 RTOS/libRTOS_LIB.a(tasks.c.obj)
 .text.vTaskResume
                0x00000000       0x90 RTOS/libRTOS_LIB.a(tasks.c.obj)
 .text.xTaskResumeFromISR
                0x00000000       0xb4 RTOS/libRTOS_LIB.a(tasks.c.obj)
 .text.vTaskEndScheduler
                0x00000000       0x24 RTOS/libRTOS_LIB.a(tasks.c.obj)
 .text.xTaskGetTickCountFromISR
                0x00000000       0x10 RTOS/libRTOS_LIB.a(tasks.c.obj)
 .text.pcTaskGetName
                0x00000000       0x14 RTOS/libRTOS_LIB.a(tasks.c.obj)
 .text.vTaskDelay
                0x00000000       0x3c RTOS/libRTOS_LIB.a(tasks.c.obj)
 .text.xTaskCatchUpTicks
                0x00000000       0x2c RTOS/libRTOS_LIB.a(tasks.c.obj)
 .text.vTaskSuspend
                0x00000000       0xe4 RTOS/libRTOS_LIB.a(tasks.c.obj)
 .text.vTaskPlaceOnUnorderedEventList
                0x00000000       0x48 RTOS/libRTOS_LIB.a(tasks.c.obj)
 .text.vTaskRemoveFromUnorderedEventList
                0x00000000       0xb8 RTOS/libRTOS_LIB.a(tasks.c.obj)
 .text.vTaskSetTimeOutState
                0x00000000       0x24 RTOS/libRTOS_LIB.a(tasks.c.obj)
 .text.uxTaskGetStackHighWaterMark
                0x00000000       0x18 RTOS/libRTOS_LIB.a(tasks.c.obj)
 .text.xTaskGetCurrentTaskHandle
                0x00000000        0xc RTOS/libRTOS_LIB.a(tasks.c.obj)
 .text.xTaskPriorityInherit
                0x00000000       0xc4 RTOS/libRTOS_LIB.a(tasks.c.obj)
 .text.vTaskPriorityDisinheritAfterTimeout
                0x00000000       0xa4 RTOS/libRTOS_LIB.a(tasks.c.obj)
 .text.uxTaskResetEventItemValue
                0x00000000       0x18 RTOS/libRTOS_LIB.a(tasks.c.obj)
 .text.pvTaskIncrementMutexHeldCount
                0x00000000       0x1c RTOS/libRTOS_LIB.a(tasks.c.obj)
 .text.ulTaskGenericNotifyTake
                0x00000000       0x98 RTOS/libRTOS_LIB.a(tasks.c.obj)
 .text.xTaskGenericNotifyWait
                0x00000000       0xbc RTOS/libRTOS_LIB.a(tasks.c.obj)
 .text.xTaskGenericNotify
                0x00000000      0x124 RTOS/libRTOS_LIB.a(tasks.c.obj)
 .text.xTaskGenericNotifyFromISR
                0x00000000      0x160 RTOS/libRTOS_LIB.a(tasks.c.obj)
 .text.vTaskGenericNotifyGiveFromISR
                0x00000000       0xf8 RTOS/libRTOS_LIB.a(tasks.c.obj)
 .text.xTaskGenericNotifyStateClear
                0x00000000       0x38 RTOS/libRTOS_LIB.a(tasks.c.obj)
 .text.ulTaskGenericNotifyValueClear
                0x00000000       0x30 RTOS/libRTOS_LIB.a(tasks.c.obj)
 .text          0x00000000        0x0 RTOS/libRTOS_LIB.a(timers.c.obj)
 .data          0x00000000        0x0 RTOS/libRTOS_LIB.a(timers.c.obj)
 .bss           0x00000000        0x0 RTOS/libRTOS_LIB.a(timers.c.obj)
 .text.prvInitialiseNewTimer
                0x00000000       0x36 RTOS/libRTOS_LIB.a(timers.c.obj)
 .text.xTimerCreate
                0x00000000       0x38 RTOS/libRTOS_LIB.a(timers.c.obj)
 .text.xTimerGenericCommand
                0x00000000       0x58 RTOS/libRTOS_LIB.a(timers.c.obj)
 .text.xTimerGetTimerDaemonTaskHandle
                0x00000000        0xc RTOS/libRTOS_LIB.a(timers.c.obj)
 .text.xTimerGetPeriod
                0x00000000        0x4 RTOS/libRTOS_LIB.a(timers.c.obj)
 .text.vTimerSetReloadMode
                0x00000000       0x2c RTOS/libRTOS_LIB.a(timers.c.obj)
 .text.xTimerGetReloadMode
                0x00000000       0x20 RTOS/libRTOS_LIB.a(timers.c.obj)
 .text.uxTimerGetReloadMode
                0x00000000        0x8 RTOS/libRTOS_LIB.a(timers.c.obj)
 .text.xTimerGetExpiryTime
                0x00000000        0x4 RTOS/libRTOS_LIB.a(timers.c.obj)
 .text.pcTimerGetName
                0x00000000        0x4 RTOS/libRTOS_LIB.a(timers.c.obj)
 .text.xTimerIsTimerActive
                0x00000000       0x20 RTOS/libRTOS_LIB.a(timers.c.obj)
 .text.pvTimerGetTimerID
                0x00000000       0x12 RTOS/libRTOS_LIB.a(timers.c.obj)
 .text.vTimerSetTimerID
                0x00000000       0x12 RTOS/libRTOS_LIB.a(timers.c.obj)
 .text.xTimerPendFunctionCallFromISR
                0x00000000       0x28 RTOS/libRTOS_LIB.a(timers.c.obj)
 .text.xTimerPendFunctionCall
                0x00000000       0x28 RTOS/libRTOS_LIB.a(timers.c.obj)
 .text          0x00000000        0x0 RTOS/libRTOS_LIB.a(heap_4.c.obj)
 .data          0x00000000        0x0 RTOS/libRTOS_LIB.a(heap_4.c.obj)
 .bss           0x00000000        0x0 RTOS/libRTOS_LIB.a(heap_4.c.obj)
 .text.xPortGetFreeHeapSize
                0x00000000        0xc RTOS/libRTOS_LIB.a(heap_4.c.obj)
 .text.xPortGetMinimumEverFreeHeapSize
                0x00000000        0xc RTOS/libRTOS_LIB.a(heap_4.c.obj)
 .text.vPortInitialiseBlocks
                0x00000000        0x2 RTOS/libRTOS_LIB.a(heap_4.c.obj)
 .text.pvPortCalloc
                0x00000000       0x32 RTOS/libRTOS_LIB.a(heap_4.c.obj)
 .text.vPortGetHeapStats
                0x00000000       0x80 RTOS/libRTOS_LIB.a(heap_4.c.obj)
 .text          0x00000000        0x0 RTOS/libRTOS_LIB.a(port.c.obj)
 .data          0x00000000        0x0 RTOS/libRTOS_LIB.a(port.c.obj)
 .bss           0x00000000        0x0 RTOS/libRTOS_LIB.a(port.c.obj)
 .text.vPortEndScheduler
                0x00000000        0x2 RTOS/libRTOS_LIB.a(port.c.obj)
 .text.vPortValidateInterruptPriority
                0x00000000       0x1c RTOS/libRTOS_LIB.a(port.c.obj)
 .text          0x00000000        0x0 RTOS/libRTOS_LIB.a(list.c.obj)
 .data          0x00000000        0x0 RTOS/libRTOS_LIB.a(list.c.obj)
 .bss           0x00000000        0x0 RTOS/libRTOS_LIB.a(list.c.obj)
 .text.vListInsertEnd
                0x00000000       0x16 RTOS/libRTOS_LIB.a(list.c.obj)
 .text          0x00000000        0x0 RTOS/libRTOS_LIB.a(queue.c.obj)
 .data          0x00000000        0x0 RTOS/libRTOS_LIB.a(queue.c.obj)
 .bss           0x00000000        0x0 RTOS/libRTOS_LIB.a(queue.c.obj)
 .text.prvGetDisinheritPriorityAfterTimeout
                0x00000000       0x10 RTOS/libRTOS_LIB.a(queue.c.obj)
 .text.prvIsQueueFull
                0x00000000       0x1e RTOS/libRTOS_LIB.a(queue.c.obj)
 .text.xQueueCreateCountingSemaphore
                0x00000000       0x20 RTOS/libRTOS_LIB.a(queue.c.obj)
 .text.xQueueGenericSend
                0x00000000      0x14e RTOS/libRTOS_LIB.a(queue.c.obj)
 .text.prvInitialiseMutex
                0x00000000       0x18 RTOS/libRTOS_LIB.a(queue.c.obj)
 .text.xQueueCreateMutex
                0x00000000       0x16 RTOS/libRTOS_LIB.a(queue.c.obj)
 .text.xQueueGiveMutexRecursive
                0x00000000       0x2c RTOS/libRTOS_LIB.a(queue.c.obj)
 .text.xQueueGenericSendFromISR
                0x00000000       0xca RTOS/libRTOS_LIB.a(queue.c.obj)
 .text.xQueueGiveFromISR
                0x00000000       0x94 RTOS/libRTOS_LIB.a(queue.c.obj)
 .text.xQueueSemaphoreTake
                0x00000000      0x14a RTOS/libRTOS_LIB.a(queue.c.obj)
 .text.xQueueTakeMutexRecursive
                0x00000000       0x2c RTOS/libRTOS_LIB.a(queue.c.obj)
 .text.xQueuePeek
                0x00000000      0x114 RTOS/libRTOS_LIB.a(queue.c.obj)
 .text.xQueueReceiveFromISR
                0x00000000       0x8e RTOS/libRTOS_LIB.a(queue.c.obj)
 .text.xQueuePeekFromISR
                0x00000000       0x3a RTOS/libRTOS_LIB.a(queue.c.obj)
 .text.uxQueueMessagesWaiting
                0x00000000       0x12 RTOS/libRTOS_LIB.a(queue.c.obj)
 .text.uxQueueSpacesAvailable
                0x00000000       0x16 RTOS/libRTOS_LIB.a(queue.c.obj)
 .text.uxQueueMessagesWaitingFromISR
                0x00000000        0x4 RTOS/libRTOS_LIB.a(queue.c.obj)
 .text.xQueueIsQueueEmptyFromISR
                0x00000000        0xc RTOS/libRTOS_LIB.a(queue.c.obj)
 .text.xQueueIsQueueFullFromISR
                0x00000000       0x10 RTOS/libRTOS_LIB.a(queue.c.obj)
 .text.pcQueueGetName
                0x00000000       0x28 RTOS/libRTOS_LIB.a(queue.c.obj)
 .text.vQueueUnregisterQueue
                0x00000000       0x2c RTOS/libRTOS_LIB.a(queue.c.obj)
 .text.vQueueDelete
                0x00000000       0x10 RTOS/libRTOS_LIB.a(queue.c.obj)
 .text.xQueueCreateSet
                0x00000000        0xc RTOS/libRTOS_LIB.a(queue.c.obj)
 .text.xQueueAddToSet
                0x00000000       0x26 RTOS/libRTOS_LIB.a(queue.c.obj)
 .text.xQueueRemoveFromSet
                0x00000000       0x26 RTOS/libRTOS_LIB.a(queue.c.obj)
 .text.xQueueSelectFromSet
                0x00000000       0x18 RTOS/libRTOS_LIB.a(queue.c.obj)
 .text.xQueueSelectFromSetFromISR
                0x00000000       0x16 RTOS/libRTOS_LIB.a(queue.c.obj)
 .text          0x00000000        0x0 USER/libUSER_LIB.a(RTOSTask.c.obj)
 .data          0x00000000        0x0 USER/libUSER_LIB.a(RTOSTask.c.obj)
 .bss           0x00000000        0x0 USER/libUSER_LIB.a(RTOSTask.c.obj)
 .rodata.Task1_SystemStrat.str1.4
                0x00000000       0x13 USER/libUSER_LIB.a(RTOSTask.c.obj)
 .text.Task1_SystemStrat
                0x00000000       0x6c USER/libUSER_LIB.a(RTOSTask.c.obj)
 .text.Task2_Project_Init
                0x00000000        0x2 USER/libUSER_LIB.a(RTOSTask.c.obj)
 .bss.Image_identify_Return.3
                0x00000000        0x1 USER/libUSER_LIB.a(RTOSTask.c.obj)
 .bss.gyro      0x00000000        0x6 USER/libUSER_LIB.a(RTOSTask.c.obj)
 .text          0x00000000        0x0 BSP/i2c/libi2c_LIB.a(softi2c.c.obj)
 .data          0x00000000        0x0 BSP/i2c/libi2c_LIB.a(softi2c.c.obj)
 .bss           0x00000000        0x0 BSP/i2c/libi2c_LIB.a(softi2c.c.obj)
 .text.Soft_IIC_Read_Byte
                0x00000000       0x3e BSP/i2c/libi2c_LIB.a(softi2c.c.obj)
 .text          0x00000000      0x254 /usr/lib/gcc/arm-none-eabi/13.2.1/thumb/v7e-m+fp/hard/libgcc.a(_arm_muldf3.o)
 .data          0x00000000        0x0 /usr/lib/gcc/arm-none-eabi/13.2.1/thumb/v7e-m+fp/hard/libgcc.a(_arm_muldf3.o)
 .bss           0x00000000        0x0 /usr/lib/gcc/arm-none-eabi/13.2.1/thumb/v7e-m+fp/hard/libgcc.a(_arm_muldf3.o)
 .debug_line    0x00000000       0xf5 /usr/lib/gcc/arm-none-eabi/13.2.1/thumb/v7e-m+fp/hard/libgcc.a(_arm_muldf3.o)
 .debug_line_str
                0x00000000       0x9c /usr/lib/gcc/arm-none-eabi/13.2.1/thumb/v7e-m+fp/hard/libgcc.a(_arm_muldf3.o)
 .debug_info    0x00000000       0x3f /usr/lib/gcc/arm-none-eabi/13.2.1/thumb/v7e-m+fp/hard/libgcc.a(_arm_muldf3.o)
 .debug_abbrev  0x00000000       0x26 /usr/lib/gcc/arm-none-eabi/13.2.1/thumb/v7e-m+fp/hard/libgcc.a(_arm_muldf3.o)
 .debug_aranges
                0x00000000       0x20 /usr/lib/gcc/arm-none-eabi/13.2.1/thumb/v7e-m+fp/hard/libgcc.a(_arm_muldf3.o)
 .debug_str     0x00000000       0xbe /usr/lib/gcc/arm-none-eabi/13.2.1/thumb/v7e-m+fp/hard/libgcc.a(_arm_muldf3.o)
 .debug_frame   0x00000000       0x30 /usr/lib/gcc/arm-none-eabi/13.2.1/thumb/v7e-m+fp/hard/libgcc.a(_arm_muldf3.o)
 .ARM.attributes
                0x00000000       0x22 /usr/lib/gcc/arm-none-eabi/13.2.1/thumb/v7e-m+fp/hard/libgcc.a(_arm_muldf3.o)
 .data          0x00000000        0x0 /usr/lib/gcc/arm-none-eabi/13.2.1/thumb/v7e-m+fp/hard/libgcc.a(_arm_addsubdf3.o)
 .bss           0x00000000        0x0 /usr/lib/gcc/arm-none-eabi/13.2.1/thumb/v7e-m+fp/hard/libgcc.a(_arm_addsubdf3.o)
 .data          0x00000000        0x0 /usr/lib/gcc/arm-none-eabi/13.2.1/thumb/v7e-m+fp/hard/libgcc.a(_arm_muldivdf3.o)
 .bss           0x00000000        0x0 /usr/lib/gcc/arm-none-eabi/13.2.1/thumb/v7e-m+fp/hard/libgcc.a(_arm_muldivdf3.o)
 .data          0x00000000        0x0 /usr/lib/gcc/arm-none-eabi/13.2.1/thumb/v7e-m+fp/hard/libgcc.a(_arm_cmpdf2.o)
 .bss           0x00000000        0x0 /usr/lib/gcc/arm-none-eabi/13.2.1/thumb/v7e-m+fp/hard/libgcc.a(_arm_cmpdf2.o)
 .data          0x00000000        0x0 /usr/lib/gcc/arm-none-eabi/13.2.1/thumb/v7e-m+fp/hard/libgcc.a(_arm_fixdfsi.o)
 .bss           0x00000000        0x0 /usr/lib/gcc/arm-none-eabi/13.2.1/thumb/v7e-m+fp/hard/libgcc.a(_arm_fixdfsi.o)
 .text          0x00000000       0x40 /usr/lib/gcc/arm-none-eabi/13.2.1/thumb/v7e-m+fp/hard/libgcc.a(_arm_fixunsdfsi.o)
 .data          0x00000000        0x0 /usr/lib/gcc/arm-none-eabi/13.2.1/thumb/v7e-m+fp/hard/libgcc.a(_arm_fixunsdfsi.o)
 .bss           0x00000000        0x0 /usr/lib/gcc/arm-none-eabi/13.2.1/thumb/v7e-m+fp/hard/libgcc.a(_arm_fixunsdfsi.o)
 .debug_line    0x00000000       0x5e /usr/lib/gcc/arm-none-eabi/13.2.1/thumb/v7e-m+fp/hard/libgcc.a(_arm_fixunsdfsi.o)
 .debug_line_str
                0x00000000       0x9c /usr/lib/gcc/arm-none-eabi/13.2.1/thumb/v7e-m+fp/hard/libgcc.a(_arm_fixunsdfsi.o)
 .debug_info    0x00000000       0x3c /usr/lib/gcc/arm-none-eabi/13.2.1/thumb/v7e-m+fp/hard/libgcc.a(_arm_fixunsdfsi.o)
 .debug_abbrev  0x00000000       0x28 /usr/lib/gcc/arm-none-eabi/13.2.1/thumb/v7e-m+fp/hard/libgcc.a(_arm_fixunsdfsi.o)
 .debug_aranges
                0x00000000       0x20 /usr/lib/gcc/arm-none-eabi/13.2.1/thumb/v7e-m+fp/hard/libgcc.a(_arm_fixunsdfsi.o)
 .debug_str     0x00000000       0xc3 /usr/lib/gcc/arm-none-eabi/13.2.1/thumb/v7e-m+fp/hard/libgcc.a(_arm_fixunsdfsi.o)
 .debug_frame   0x00000000       0x24 /usr/lib/gcc/arm-none-eabi/13.2.1/thumb/v7e-m+fp/hard/libgcc.a(_arm_fixunsdfsi.o)
 .ARM.attributes
                0x00000000       0x22 /usr/lib/gcc/arm-none-eabi/13.2.1/thumb/v7e-m+fp/hard/libgcc.a(_arm_fixunsdfsi.o)
 .data          0x00000000        0x0 /usr/lib/gcc/arm-none-eabi/13.2.1/thumb/v7e-m+fp/hard/libgcc.a(_arm_truncdfsf2.o)
 .bss           0x00000000        0x0 /usr/lib/gcc/arm-none-eabi/13.2.1/thumb/v7e-m+fp/hard/libgcc.a(_arm_truncdfsf2.o)
 .text          0x00000000       0xa0 /usr/lib/gcc/arm-none-eabi/13.2.1/thumb/v7e-m+fp/hard/libgcc.a(_aeabi_ldivmod.o)
 .data          0x00000000        0x0 /usr/lib/gcc/arm-none-eabi/13.2.1/thumb/v7e-m+fp/hard/libgcc.a(_aeabi_ldivmod.o)
 .bss           0x00000000        0x0 /usr/lib/gcc/arm-none-eabi/13.2.1/thumb/v7e-m+fp/hard/libgcc.a(_aeabi_ldivmod.o)
 .debug_line    0x00000000       0x6c /usr/lib/gcc/arm-none-eabi/13.2.1/thumb/v7e-m+fp/hard/libgcc.a(_aeabi_ldivmod.o)
 .debug_line_str
                0x00000000       0x97 /usr/lib/gcc/arm-none-eabi/13.2.1/thumb/v7e-m+fp/hard/libgcc.a(_aeabi_ldivmod.o)
 .debug_info    0x00000000       0x25 /usr/lib/gcc/arm-none-eabi/13.2.1/thumb/v7e-m+fp/hard/libgcc.a(_aeabi_ldivmod.o)
 .debug_abbrev  0x00000000       0x14 /usr/lib/gcc/arm-none-eabi/13.2.1/thumb/v7e-m+fp/hard/libgcc.a(_aeabi_ldivmod.o)
 .debug_aranges
                0x00000000       0x20 /usr/lib/gcc/arm-none-eabi/13.2.1/thumb/v7e-m+fp/hard/libgcc.a(_aeabi_ldivmod.o)
 .debug_str     0x00000000       0xa3 /usr/lib/gcc/arm-none-eabi/13.2.1/thumb/v7e-m+fp/hard/libgcc.a(_aeabi_ldivmod.o)
 .debug_frame   0x00000000       0x44 /usr/lib/gcc/arm-none-eabi/13.2.1/thumb/v7e-m+fp/hard/libgcc.a(_aeabi_ldivmod.o)
 .ARM.attributes
                0x00000000       0x22 /usr/lib/gcc/arm-none-eabi/13.2.1/thumb/v7e-m+fp/hard/libgcc.a(_aeabi_ldivmod.o)
 .text          0x00000000      0x2bc /usr/lib/gcc/arm-none-eabi/13.2.1/thumb/v7e-m+fp/hard/libgcc.a(_udivmoddi4.o)
 .data          0x00000000        0x0 /usr/lib/gcc/arm-none-eabi/13.2.1/thumb/v7e-m+fp/hard/libgcc.a(_udivmoddi4.o)
 .bss           0x00000000        0x0 /usr/lib/gcc/arm-none-eabi/13.2.1/thumb/v7e-m+fp/hard/libgcc.a(_udivmoddi4.o)
 .ARM.extab     0x00000000        0x0 /usr/lib/gcc/arm-none-eabi/13.2.1/thumb/v7e-m+fp/hard/libgcc.a(_udivmoddi4.o)
 .ARM.exidx     0x00000000        0x8 /usr/lib/gcc/arm-none-eabi/13.2.1/thumb/v7e-m+fp/hard/libgcc.a(_udivmoddi4.o)
 .debug_info    0x00000000      0x6f5 /usr/lib/gcc/arm-none-eabi/13.2.1/thumb/v7e-m+fp/hard/libgcc.a(_udivmoddi4.o)
 .debug_abbrev  0x00000000      0x16a /usr/lib/gcc/arm-none-eabi/13.2.1/thumb/v7e-m+fp/hard/libgcc.a(_udivmoddi4.o)
 .debug_loclists
                0x00000000      0x9e4 /usr/lib/gcc/arm-none-eabi/13.2.1/thumb/v7e-m+fp/hard/libgcc.a(_udivmoddi4.o)
 .debug_aranges
                0x00000000       0x20 /usr/lib/gcc/arm-none-eabi/13.2.1/thumb/v7e-m+fp/hard/libgcc.a(_udivmoddi4.o)
 .debug_rnglists
                0x00000000       0x84 /usr/lib/gcc/arm-none-eabi/13.2.1/thumb/v7e-m+fp/hard/libgcc.a(_udivmoddi4.o)
 .debug_line    0x00000000      0x574 /usr/lib/gcc/arm-none-eabi/13.2.1/thumb/v7e-m+fp/hard/libgcc.a(_udivmoddi4.o)
 .debug_str     0x00000000      0x685 /usr/lib/gcc/arm-none-eabi/13.2.1/thumb/v7e-m+fp/hard/libgcc.a(_udivmoddi4.o)
 .comment       0x00000000       0x27 /usr/lib/gcc/arm-none-eabi/13.2.1/thumb/v7e-m+fp/hard/libgcc.a(_udivmoddi4.o)
 .debug_frame   0x00000000       0x34 /usr/lib/gcc/arm-none-eabi/13.2.1/thumb/v7e-m+fp/hard/libgcc.a(_udivmoddi4.o)
 .ARM.attributes
                0x00000000       0x34 /usr/lib/gcc/arm-none-eabi/13.2.1/thumb/v7e-m+fp/hard/libgcc.a(_udivmoddi4.o)
 .text          0x00000000        0x4 /usr/lib/gcc/arm-none-eabi/13.2.1/thumb/v7e-m+fp/hard/libgcc.a(_dvmd_tls.o)
 .data          0x00000000        0x0 /usr/lib/gcc/arm-none-eabi/13.2.1/thumb/v7e-m+fp/hard/libgcc.a(_dvmd_tls.o)
 .bss           0x00000000        0x0 /usr/lib/gcc/arm-none-eabi/13.2.1/thumb/v7e-m+fp/hard/libgcc.a(_dvmd_tls.o)
 .debug_line    0x00000000       0x4a /usr/lib/gcc/arm-none-eabi/13.2.1/thumb/v7e-m+fp/hard/libgcc.a(_dvmd_tls.o)
 .debug_line_str
                0x00000000       0x9b /usr/lib/gcc/arm-none-eabi/13.2.1/thumb/v7e-m+fp/hard/libgcc.a(_dvmd_tls.o)
 .debug_info    0x00000000       0x3c /usr/lib/gcc/arm-none-eabi/13.2.1/thumb/v7e-m+fp/hard/libgcc.a(_dvmd_tls.o)
 .debug_abbrev  0x00000000       0x26 /usr/lib/gcc/arm-none-eabi/13.2.1/thumb/v7e-m+fp/hard/libgcc.a(_dvmd_tls.o)
 .debug_aranges
                0x00000000       0x20 /usr/lib/gcc/arm-none-eabi/13.2.1/thumb/v7e-m+fp/hard/libgcc.a(_dvmd_tls.o)
 .debug_str     0x00000000       0xc3 /usr/lib/gcc/arm-none-eabi/13.2.1/thumb/v7e-m+fp/hard/libgcc.a(_dvmd_tls.o)
 .ARM.attributes
                0x00000000       0x22 /usr/lib/gcc/arm-none-eabi/13.2.1/thumb/v7e-m+fp/hard/libgcc.a(_dvmd_tls.o)
 .data          0x00000000        0x0 /usr/lib/gcc/arm-none-eabi/13.2.1/../../../arm-none-eabi/lib/thumb/v7e-m+fp/hard/libg.a(libc_a-memset.o)
 .bss           0x00000000        0x0 /usr/lib/gcc/arm-none-eabi/13.2.1/../../../arm-none-eabi/lib/thumb/v7e-m+fp/hard/libg.a(libc_a-memset.o)
 .data          0x00000000        0x0 /usr/lib/gcc/arm-none-eabi/13.2.1/../../../arm-none-eabi/lib/thumb/v7e-m+fp/hard/libg.a(libc_a-strcmp.o)
 .bss           0x00000000        0x0 /usr/lib/gcc/arm-none-eabi/13.2.1/../../../arm-none-eabi/lib/thumb/v7e-m+fp/hard/libg.a(libc_a-strcmp.o)
 .ARM.extab     0x00000000        0x0 /usr/lib/gcc/arm-none-eabi/13.2.1/../../../arm-none-eabi/lib/thumb/v7e-m+fp/hard/libg.a(libc_a-strcmp.o)
 .data          0x00000000        0x0 /usr/lib/gcc/arm-none-eabi/13.2.1/../../../arm-none-eabi/lib/thumb/v7e-m+fp/hard/libg.a(libc_a-vsprintf.o)
 .bss           0x00000000        0x0 /usr/lib/gcc/arm-none-eabi/13.2.1/../../../arm-none-eabi/lib/thumb/v7e-m+fp/hard/libg.a(libc_a-vsprintf.o)
 .text          0x00000000        0x0 /usr/lib/gcc/arm-none-eabi/13.2.1/../../../arm-none-eabi/lib/thumb/v7e-m+fp/hard/libg.a(libc_a-impure.o)
 .bss           0x00000000        0x0 /usr/lib/gcc/arm-none-eabi/13.2.1/../../../arm-none-eabi/lib/thumb/v7e-m+fp/hard/libg.a(libc_a-impure.o)
 .data          0x00000000        0x0 /usr/lib/gcc/arm-none-eabi/13.2.1/../../../arm-none-eabi/lib/thumb/v7e-m+fp/hard/libg.a(libc_a-memcmp.o)
 .bss           0x00000000        0x0 /usr/lib/gcc/arm-none-eabi/13.2.1/../../../arm-none-eabi/lib/thumb/v7e-m+fp/hard/libg.a(libc_a-memcmp.o)
 .data          0x00000000        0x0 /usr/lib/gcc/arm-none-eabi/13.2.1/../../../arm-none-eabi/lib/thumb/v7e-m+fp/hard/libg.a(libc_a-memcpy.o)
 .bss           0x00000000        0x0 /usr/lib/gcc/arm-none-eabi/13.2.1/../../../arm-none-eabi/lib/thumb/v7e-m+fp/hard/libg.a(libc_a-memcpy.o)
 .ARM.extab     0x00000000        0x0 /usr/lib/gcc/arm-none-eabi/13.2.1/../../../arm-none-eabi/lib/thumb/v7e-m+fp/hard/libg.a(libc_a-memcpy.o)
 .eh_frame      0x00000000       0x2c /usr/lib/gcc/arm-none-eabi/13.2.1/../../../arm-none-eabi/lib/thumb/v7e-m+fp/hard/libg.a(libc_a-memcpy.o)
 .data          0x00000000        0x0 /usr/lib/gcc/arm-none-eabi/13.2.1/../../../arm-none-eabi/lib/thumb/v7e-m+fp/hard/libg.a(libc_a-init.o)
 .bss           0x00000000        0x0 /usr/lib/gcc/arm-none-eabi/13.2.1/../../../arm-none-eabi/lib/thumb/v7e-m+fp/hard/libg.a(libc_a-init.o)
 .data          0x00000000        0x0 /usr/lib/gcc/arm-none-eabi/13.2.1/../../../arm-none-eabi/lib/thumb/v7e-m+fp/hard/libg.a(libc_a-puts.o)
 .bss           0x00000000        0x0 /usr/lib/gcc/arm-none-eabi/13.2.1/../../../arm-none-eabi/lib/thumb/v7e-m+fp/hard/libg.a(libc_a-puts.o)
 .data          0x00000000        0x0 /usr/lib/gcc/arm-none-eabi/13.2.1/../../../arm-none-eabi/lib/thumb/v7e-m+fp/hard/libg.a(libc_a-fvwrite.o)
 .bss           0x00000000        0x0 /usr/lib/gcc/arm-none-eabi/13.2.1/../../../arm-none-eabi/lib/thumb/v7e-m+fp/hard/libg.a(libc_a-fvwrite.o)
 .text          0x00000000       0x1c /usr/lib/gcc/arm-none-eabi/13.2.1/../../../arm-none-eabi/lib/thumb/v7e-m+fp/hard/libg.a(libc_a-exit.o)
 .data          0x00000000        0x0 /usr/lib/gcc/arm-none-eabi/13.2.1/../../../arm-none-eabi/lib/thumb/v7e-m+fp/hard/libg.a(libc_a-exit.o)
 .bss           0x00000000        0x0 /usr/lib/gcc/arm-none-eabi/13.2.1/../../../arm-none-eabi/lib/thumb/v7e-m+fp/hard/libg.a(libc_a-exit.o)
 .debug_info    0x00000000      0x10a /usr/lib/gcc/arm-none-eabi/13.2.1/../../../arm-none-eabi/lib/thumb/v7e-m+fp/hard/libg.a(libc_a-exit.o)
 .debug_abbrev  0x00000000       0xd5 /usr/lib/gcc/arm-none-eabi/13.2.1/../../../arm-none-eabi/lib/thumb/v7e-m+fp/hard/libg.a(libc_a-exit.o)
 .debug_loclists
                0x00000000       0x1b /usr/lib/gcc/arm-none-eabi/13.2.1/../../../arm-none-eabi/lib/thumb/v7e-m+fp/hard/libg.a(libc_a-exit.o)
 .debug_aranges
                0x00000000       0x20 /usr/lib/gcc/arm-none-eabi/13.2.1/../../../arm-none-eabi/lib/thumb/v7e-m+fp/hard/libg.a(libc_a-exit.o)
 .debug_line    0x00000000      0x139 /usr/lib/gcc/arm-none-eabi/13.2.1/../../../arm-none-eabi/lib/thumb/v7e-m+fp/hard/libg.a(libc_a-exit.o)
 .debug_str     0x00000000      0x1ba /usr/lib/gcc/arm-none-eabi/13.2.1/../../../arm-none-eabi/lib/thumb/v7e-m+fp/hard/libg.a(libc_a-exit.o)
 .comment       0x00000000       0x27 /usr/lib/gcc/arm-none-eabi/13.2.1/../../../arm-none-eabi/lib/thumb/v7e-m+fp/hard/libg.a(libc_a-exit.o)
 .debug_frame   0x00000000       0x28 /usr/lib/gcc/arm-none-eabi/13.2.1/../../../arm-none-eabi/lib/thumb/v7e-m+fp/hard/libg.a(libc_a-exit.o)
 .ARM.attributes
                0x00000000       0x34 /usr/lib/gcc/arm-none-eabi/13.2.1/../../../arm-none-eabi/lib/thumb/v7e-m+fp/hard/libg.a(libc_a-exit.o)
 .data          0x00000000        0x0 /usr/lib/gcc/arm-none-eabi/13.2.1/../../../arm-none-eabi/lib/thumb/v7e-m+fp/hard/libg.a(libc_a-atexit.o)
 .bss           0x00000000        0x0 /usr/lib/gcc/arm-none-eabi/13.2.1/../../../arm-none-eabi/lib/thumb/v7e-m+fp/hard/libg.a(libc_a-atexit.o)
 .data          0x00000000        0x0 /usr/lib/gcc/arm-none-eabi/13.2.1/../../../arm-none-eabi/lib/thumb/v7e-m+fp/hard/libg.a(libc_a-printf.o)
 .bss           0x00000000        0x0 /usr/lib/gcc/arm-none-eabi/13.2.1/../../../arm-none-eabi/lib/thumb/v7e-m+fp/hard/libg.a(libc_a-printf.o)
 .data          0x00000000        0x0 /usr/lib/gcc/arm-none-eabi/13.2.1/../../../arm-none-eabi/lib/thumb/v7e-m+fp/hard/libg.a(libc_a-fini.o)
 .bss           0x00000000        0x0 /usr/lib/gcc/arm-none-eabi/13.2.1/../../../arm-none-eabi/lib/thumb/v7e-m+fp/hard/libg.a(libc_a-fini.o)
 .data          0x00000000        0x0 /usr/lib/gcc/arm-none-eabi/13.2.1/../../../arm-none-eabi/lib/thumb/v7e-m+fp/hard/libg.a(libc_a-strlen.o)
 .bss           0x00000000        0x0 /usr/lib/gcc/arm-none-eabi/13.2.1/../../../arm-none-eabi/lib/thumb/v7e-m+fp/hard/libg.a(libc_a-strlen.o)
 .ARM.extab     0x00000000        0x0 /usr/lib/gcc/arm-none-eabi/13.2.1/../../../arm-none-eabi/lib/thumb/v7e-m+fp/hard/libg.a(libc_a-strlen.o)
 .eh_frame      0x00000000       0x34 /usr/lib/gcc/arm-none-eabi/13.2.1/../../../arm-none-eabi/lib/thumb/v7e-m+fp/hard/libg.a(libc_a-strlen.o)
 .data          0x00000000        0x0 /usr/lib/gcc/arm-none-eabi/13.2.1/../../../arm-none-eabi/lib/thumb/v7e-m+fp/hard/libg.a(libc_a-fwalk.o)
 .bss           0x00000000        0x0 /usr/lib/gcc/arm-none-eabi/13.2.1/../../../arm-none-eabi/lib/thumb/v7e-m+fp/hard/libg.a(libc_a-fwalk.o)
 .data          0x00000000        0x0 /usr/lib/gcc/arm-none-eabi/13.2.1/../../../arm-none-eabi/lib/thumb/v7e-m+fp/hard/libg.a(libc_a-vfprintf.o)
 .bss           0x00000000        0x0 /usr/lib/gcc/arm-none-eabi/13.2.1/../../../arm-none-eabi/lib/thumb/v7e-m+fp/hard/libg.a(libc_a-vfprintf.o)
 .data          0x00000000        0x0 /usr/lib/gcc/arm-none-eabi/13.2.1/../../../arm-none-eabi/lib/thumb/v7e-m+fp/hard/libg.a(libc_a-memchr.o)
 .bss           0x00000000        0x0 /usr/lib/gcc/arm-none-eabi/13.2.1/../../../arm-none-eabi/lib/thumb/v7e-m+fp/hard/libg.a(libc_a-memchr.o)
 .ARM.extab     0x00000000        0x0 /usr/lib/gcc/arm-none-eabi/13.2.1/../../../arm-none-eabi/lib/thumb/v7e-m+fp/hard/libg.a(libc_a-memchr.o)
 .eh_frame      0x00000000       0x50 /usr/lib/gcc/arm-none-eabi/13.2.1/../../../arm-none-eabi/lib/thumb/v7e-m+fp/hard/libg.a(libc_a-memchr.o)
 .data          0x00000000        0x0 /usr/lib/gcc/arm-none-eabi/13.2.1/../../../arm-none-eabi/lib/thumb/v7e-m+fp/hard/libg.a(libc_a-svfprintf.o)
 .bss           0x00000000        0x0 /usr/lib/gcc/arm-none-eabi/13.2.1/../../../arm-none-eabi/lib/thumb/v7e-m+fp/hard/libg.a(libc_a-svfprintf.o)
 .data          0x00000000        0x0 /usr/lib/gcc/arm-none-eabi/13.2.1/../../../arm-none-eabi/lib/thumb/v7e-m+fp/hard/libg.a(libc_a-fflush.o)
 .bss           0x00000000        0x0 /usr/lib/gcc/arm-none-eabi/13.2.1/../../../arm-none-eabi/lib/thumb/v7e-m+fp/hard/libg.a(libc_a-fflush.o)
 .data          0x00000000        0x0 /usr/lib/gcc/arm-none-eabi/13.2.1/../../../arm-none-eabi/lib/thumb/v7e-m+fp/hard/libg.a(libc_a-memmove.o)
 .bss           0x00000000        0x0 /usr/lib/gcc/arm-none-eabi/13.2.1/../../../arm-none-eabi/lib/thumb/v7e-m+fp/hard/libg.a(libc_a-memmove.o)
 .data          0x00000000        0x0 /usr/lib/gcc/arm-none-eabi/13.2.1/../../../arm-none-eabi/lib/thumb/v7e-m+fp/hard/libg.a(libc_a-dtoa.o)
 .bss           0x00000000        0x0 /usr/lib/gcc/arm-none-eabi/13.2.1/../../../arm-none-eabi/lib/thumb/v7e-m+fp/hard/libg.a(libc_a-dtoa.o)
 .data          0x00000000        0x0 /usr/lib/gcc/arm-none-eabi/13.2.1/../../../arm-none-eabi/lib/thumb/v7e-m+fp/hard/libg.a(libc_a-wsetup.o)
 .bss           0x00000000        0x0 /usr/lib/gcc/arm-none-eabi/13.2.1/../../../arm-none-eabi/lib/thumb/v7e-m+fp/hard/libg.a(libc_a-wsetup.o)
 .data          0x00000000        0x0 /usr/lib/gcc/arm-none-eabi/13.2.1/../../../arm-none-eabi/lib/thumb/v7e-m+fp/hard/libg.a(libc_a-freer.o)
 .bss           0x00000000        0x0 /usr/lib/gcc/arm-none-eabi/13.2.1/../../../arm-none-eabi/lib/thumb/v7e-m+fp/hard/libg.a(libc_a-freer.o)
 .data          0x00000000        0x0 /usr/lib/gcc/arm-none-eabi/13.2.1/../../../arm-none-eabi/lib/thumb/v7e-m+fp/hard/libg.a(libc_a-fclose.o)
 .bss           0x00000000        0x0 /usr/lib/gcc/arm-none-eabi/13.2.1/../../../arm-none-eabi/lib/thumb/v7e-m+fp/hard/libg.a(libc_a-fclose.o)
 .text          0x00000000       0xb0 /usr/lib/gcc/arm-none-eabi/13.2.1/../../../arm-none-eabi/lib/thumb/v7e-m+fp/hard/libg.a(libc_a-__call_atexit.o)
 .data          0x00000000        0x0 /usr/lib/gcc/arm-none-eabi/13.2.1/../../../arm-none-eabi/lib/thumb/v7e-m+fp/hard/libg.a(libc_a-__call_atexit.o)
 .data          0x00000000        0x0 /usr/lib/gcc/arm-none-eabi/13.2.1/../../../arm-none-eabi/lib/thumb/v7e-m+fp/hard/libg.a(libc_a-sysconf.o)
 .bss           0x00000000        0x0 /usr/lib/gcc/arm-none-eabi/13.2.1/../../../arm-none-eabi/lib/thumb/v7e-m+fp/hard/libg.a(libc_a-sysconf.o)
 .data          0x00000000        0x0 /usr/lib/gcc/arm-none-eabi/13.2.1/../../../arm-none-eabi/lib/thumb/v7e-m+fp/hard/libg.a(libc_a-stdio.o)
 .bss           0x00000000        0x0 /usr/lib/gcc/arm-none-eabi/13.2.1/../../../arm-none-eabi/lib/thumb/v7e-m+fp/hard/libg.a(libc_a-stdio.o)
 .data          0x00000000        0x0 /usr/lib/gcc/arm-none-eabi/13.2.1/../../../arm-none-eabi/lib/thumb/v7e-m+fp/hard/libg.a(libc_a-__atexit.o)
 .data          0x00000000        0x0 /usr/lib/gcc/arm-none-eabi/13.2.1/../../../arm-none-eabi/lib/thumb/v7e-m+fp/hard/libg.a(libc_a-reallocr.o)
 .bss           0x00000000        0x0 /usr/lib/gcc/arm-none-eabi/13.2.1/../../../arm-none-eabi/lib/thumb/v7e-m+fp/hard/libg.a(libc_a-reallocr.o)
 .data          0x00000000        0x0 /usr/lib/gcc/arm-none-eabi/13.2.1/../../../arm-none-eabi/lib/thumb/v7e-m+fp/hard/libg.a(libc_a-mlock.o)
 .bss           0x00000000        0x0 /usr/lib/gcc/arm-none-eabi/13.2.1/../../../arm-none-eabi/lib/thumb/v7e-m+fp/hard/libg.a(libc_a-mlock.o)
 .data          0x00000000        0x0 /usr/lib/gcc/arm-none-eabi/13.2.1/../../../arm-none-eabi/lib/thumb/v7e-m+fp/hard/libg.a(libc_a-ssprint_r.o)
 .bss           0x00000000        0x0 /usr/lib/gcc/arm-none-eabi/13.2.1/../../../arm-none-eabi/lib/thumb/v7e-m+fp/hard/libg.a(libc_a-ssprint_r.o)
 .data          0x00000000        0x0 /usr/lib/gcc/arm-none-eabi/13.2.1/../../../arm-none-eabi/lib/thumb/v7e-m+fp/hard/libg.a(libc_a-sbrkr.o)
 .bss           0x00000000        0x0 /usr/lib/gcc/arm-none-eabi/13.2.1/../../../arm-none-eabi/lib/thumb/v7e-m+fp/hard/libg.a(libc_a-sbrkr.o)
 .data          0x00000000        0x0 /usr/lib/gcc/arm-none-eabi/13.2.1/../../../arm-none-eabi/lib/thumb/v7e-m+fp/hard/libg.a(libc_a-sprint_r.o)
 .bss           0x00000000        0x0 /usr/lib/gcc/arm-none-eabi/13.2.1/../../../arm-none-eabi/lib/thumb/v7e-m+fp/hard/libg.a(libc_a-sprint_r.o)
 .data          0x00000000        0x0 /usr/lib/gcc/arm-none-eabi/13.2.1/../../../arm-none-eabi/lib/thumb/v7e-m+fp/hard/libg.a(libc_a-assert.o)
 .bss           0x00000000        0x0 /usr/lib/gcc/arm-none-eabi/13.2.1/../../../arm-none-eabi/lib/thumb/v7e-m+fp/hard/libg.a(libc_a-assert.o)
 .data          0x00000000        0x0 /usr/lib/gcc/arm-none-eabi/13.2.1/../../../arm-none-eabi/lib/thumb/v7e-m+fp/hard/libg.a(libc_a-mprec.o)
 .bss           0x00000000        0x0 /usr/lib/gcc/arm-none-eabi/13.2.1/../../../arm-none-eabi/lib/thumb/v7e-m+fp/hard/libg.a(libc_a-mprec.o)
 .data          0x00000000        0x0 /usr/lib/gcc/arm-none-eabi/13.2.1/../../../arm-none-eabi/lib/thumb/v7e-m+fp/hard/libg.a(libc_a-localeconv.o)
 .bss           0x00000000        0x0 /usr/lib/gcc/arm-none-eabi/13.2.1/../../../arm-none-eabi/lib/thumb/v7e-m+fp/hard/libg.a(libc_a-localeconv.o)
 .data          0x00000000        0x0 /usr/lib/gcc/arm-none-eabi/13.2.1/../../../arm-none-eabi/lib/thumb/v7e-m+fp/hard/libg.a(libc_a-makebuf.o)
 .bss           0x00000000        0x0 /usr/lib/gcc/arm-none-eabi/13.2.1/../../../arm-none-eabi/lib/thumb/v7e-m+fp/hard/libg.a(libc_a-makebuf.o)
 .text          0x00000000       0x8c /usr/lib/gcc/arm-none-eabi/13.2.1/../../../arm-none-eabi/lib/thumb/v7e-m+fp/hard/libg.a(libc_a-locale.o)
 .bss           0x00000000        0x4 /usr/lib/gcc/arm-none-eabi/13.2.1/../../../arm-none-eabi/lib/thumb/v7e-m+fp/hard/libg.a(libc_a-locale.o)
 .data          0x00000000        0x0 /usr/lib/gcc/arm-none-eabi/13.2.1/../../../arm-none-eabi/lib/thumb/v7e-m+fp/hard/libg.a(libc_a-mbtowc_r.o)
 .bss           0x00000000        0x0 /usr/lib/gcc/arm-none-eabi/13.2.1/../../../arm-none-eabi/lib/thumb/v7e-m+fp/hard/libg.a(libc_a-mbtowc_r.o)
 .data          0x00000000        0x0 /usr/lib/gcc/arm-none-eabi/13.2.1/../../../arm-none-eabi/lib/thumb/v7e-m+fp/hard/libg.a(libc_a-errno.o)
 .bss           0x00000000        0x0 /usr/lib/gcc/arm-none-eabi/13.2.1/../../../arm-none-eabi/lib/thumb/v7e-m+fp/hard/libg.a(libc_a-errno.o)
 .data          0x00000000        0x0 /usr/lib/gcc/arm-none-eabi/13.2.1/../../../arm-none-eabi/lib/thumb/v7e-m+fp/hard/libg.a(libc_a-abort.o)
 .bss           0x00000000        0x0 /usr/lib/gcc/arm-none-eabi/13.2.1/../../../arm-none-eabi/lib/thumb/v7e-m+fp/hard/libg.a(libc_a-abort.o)
 .data          0x00000000        0x0 /usr/lib/gcc/arm-none-eabi/13.2.1/../../../arm-none-eabi/lib/thumb/v7e-m+fp/hard/libg.a(libc_a-callocr.o)
 .bss           0x00000000        0x0 /usr/lib/gcc/arm-none-eabi/13.2.1/../../../arm-none-eabi/lib/thumb/v7e-m+fp/hard/libg.a(libc_a-callocr.o)
 .data          0x00000000        0x0 /usr/lib/gcc/arm-none-eabi/13.2.1/../../../arm-none-eabi/lib/thumb/v7e-m+fp/hard/libg.a(libc_a-ssputs_r.o)
 .bss           0x00000000        0x0 /usr/lib/gcc/arm-none-eabi/13.2.1/../../../arm-none-eabi/lib/thumb/v7e-m+fp/hard/libg.a(libc_a-ssputs_r.o)
 .data          0x00000000        0x0 /usr/lib/gcc/arm-none-eabi/13.2.1/../../../arm-none-eabi/lib/thumb/v7e-m+fp/hard/libg.a(libc_a-fiprintf.o)
 .bss           0x00000000        0x0 /usr/lib/gcc/arm-none-eabi/13.2.1/../../../arm-none-eabi/lib/thumb/v7e-m+fp/hard/libg.a(libc_a-fiprintf.o)
 .data          0x00000000        0x0 /usr/lib/gcc/arm-none-eabi/13.2.1/../../../arm-none-eabi/lib/thumb/v7e-m+fp/hard/libg.a(libc_a-wctomb_r.o)
 .bss           0x00000000        0x0 /usr/lib/gcc/arm-none-eabi/13.2.1/../../../arm-none-eabi/lib/thumb/v7e-m+fp/hard/libg.a(libc_a-wctomb_r.o)
 .text          0x00000000       0x6c /usr/lib/gcc/arm-none-eabi/13.2.1/../../../arm-none-eabi/lib/thumb/v7e-m+fp/hard/libg.a(libc_a-reent.o)
 .data          0x00000000        0x0 /usr/lib/gcc/arm-none-eabi/13.2.1/../../../arm-none-eabi/lib/thumb/v7e-m+fp/hard/libg.a(libc_a-reent.o)
 .text          0x00000000        0x0 /usr/lib/gcc/arm-none-eabi/13.2.1/../../../arm-none-eabi/lib/thumb/v7e-m+fp/hard/libg.a(libc_a-ctype_.o)
 .data          0x00000000        0x0 /usr/lib/gcc/arm-none-eabi/13.2.1/../../../arm-none-eabi/lib/thumb/v7e-m+fp/hard/libg.a(libc_a-ctype_.o)
 .bss           0x00000000        0x0 /usr/lib/gcc/arm-none-eabi/13.2.1/../../../arm-none-eabi/lib/thumb/v7e-m+fp/hard/libg.a(libc_a-ctype_.o)
 .data          0x00000000        0x0 /usr/lib/gcc/arm-none-eabi/13.2.1/../../../arm-none-eabi/lib/thumb/v7e-m+fp/hard/libg.a(libc_a-signal.o)
 .bss           0x00000000        0x0 /usr/lib/gcc/arm-none-eabi/13.2.1/../../../arm-none-eabi/lib/thumb/v7e-m+fp/hard/libg.a(libc_a-signal.o)
 .data          0x00000000        0x0 /usr/lib/gcc/arm-none-eabi/13.2.1/../../../arm-none-eabi/lib/thumb/v7e-m+fp/hard/libg.a(libc_a-vfiprintf.o)
 .bss           0x00000000        0x0 /usr/lib/gcc/arm-none-eabi/13.2.1/../../../arm-none-eabi/lib/thumb/v7e-m+fp/hard/libg.a(libc_a-vfiprintf.o)
 .data          0x00000000        0x0 /usr/lib/gcc/arm-none-eabi/13.2.1/thumb/v7e-m+fp/hard/libgcc.a(_arm_unorddf2.o)
 .bss           0x00000000        0x0 /usr/lib/gcc/arm-none-eabi/13.2.1/thumb/v7e-m+fp/hard/libgcc.a(_arm_unorddf2.o)
 .text          0x00000000        0x0 /usr/lib/gcc/arm-none-eabi/13.2.1/thumb/v7e-m+fp/hard/crtend.o
 .data          0x00000000        0x0 /usr/lib/gcc/arm-none-eabi/13.2.1/thumb/v7e-m+fp/hard/crtend.o
 .bss           0x00000000        0x0 /usr/lib/gcc/arm-none-eabi/13.2.1/thumb/v7e-m+fp/hard/crtend.o
 .rodata        0x00000000       0x24 /usr/lib/gcc/arm-none-eabi/13.2.1/thumb/v7e-m+fp/hard/crtend.o
 .eh_frame      0x00000000        0x4 /usr/lib/gcc/arm-none-eabi/13.2.1/thumb/v7e-m+fp/hard/crtend.o
 .text          0x00000000        0x0 /usr/lib/gcc/arm-none-eabi/13.2.1/thumb/v7e-m+fp/hard/crtn.o
 .data          0x00000000        0x0 /usr/lib/gcc/arm-none-eabi/13.2.1/thumb/v7e-m+fp/hard/crtn.o
 .bss           0x00000000        0x0 /usr/lib/gcc/arm-none-eabi/13.2.1/thumb/v7e-m+fp/hard/crtn.o
 .data          0x00000000        0x0 /usr/lib/gcc/arm-none-eabi/13.2.1/../../../arm-none-eabi/lib/thumb/v7e-m+fp/hard/libm.a(libm_a-w_atan2.o)
 .bss           0x00000000        0x0 /usr/lib/gcc/arm-none-eabi/13.2.1/../../../arm-none-eabi/lib/thumb/v7e-m+fp/hard/libm.a(libm_a-w_atan2.o)
 .debug_info    0x00000000      0x107 /usr/lib/gcc/arm-none-eabi/13.2.1/../../../arm-none-eabi/lib/thumb/v7e-m+fp/hard/libm.a(libm_a-w_atan2.o)
 .debug_abbrev  0x00000000       0x8d /usr/lib/gcc/arm-none-eabi/13.2.1/../../../arm-none-eabi/lib/thumb/v7e-m+fp/hard/libm.a(libm_a-w_atan2.o)
 .debug_loclists
                0x00000000       0x42 /usr/lib/gcc/arm-none-eabi/13.2.1/../../../arm-none-eabi/lib/thumb/v7e-m+fp/hard/libm.a(libm_a-w_atan2.o)
 .debug_aranges
                0x00000000       0x20 /usr/lib/gcc/arm-none-eabi/13.2.1/../../../arm-none-eabi/lib/thumb/v7e-m+fp/hard/libm.a(libm_a-w_atan2.o)
 .debug_line    0x00000000       0xdf /usr/lib/gcc/arm-none-eabi/13.2.1/../../../arm-none-eabi/lib/thumb/v7e-m+fp/hard/libm.a(libm_a-w_atan2.o)
 .debug_str     0x00000000      0x1a8 /usr/lib/gcc/arm-none-eabi/13.2.1/../../../arm-none-eabi/lib/thumb/v7e-m+fp/hard/libm.a(libm_a-w_atan2.o)
 .comment       0x00000000       0x27 /usr/lib/gcc/arm-none-eabi/13.2.1/../../../arm-none-eabi/lib/thumb/v7e-m+fp/hard/libm.a(libm_a-w_atan2.o)
 .debug_frame   0x00000000       0x20 /usr/lib/gcc/arm-none-eabi/13.2.1/../../../arm-none-eabi/lib/thumb/v7e-m+fp/hard/libm.a(libm_a-w_atan2.o)
 .ARM.attributes
                0x00000000       0x34 /usr/lib/gcc/arm-none-eabi/13.2.1/../../../arm-none-eabi/lib/thumb/v7e-m+fp/hard/libm.a(libm_a-w_atan2.o)
 .text          0x00000000       0xa0 /usr/lib/gcc/arm-none-eabi/13.2.1/../../../arm-none-eabi/lib/thumb/v7e-m+fp/hard/libm.a(libm_a-s_round.o)
 .data          0x00000000        0x0 /usr/lib/gcc/arm-none-eabi/13.2.1/../../../arm-none-eabi/lib/thumb/v7e-m+fp/hard/libm.a(libm_a-s_round.o)
 .bss           0x00000000        0x0 /usr/lib/gcc/arm-none-eabi/13.2.1/../../../arm-none-eabi/lib/thumb/v7e-m+fp/hard/libm.a(libm_a-s_round.o)
 .debug_info    0x00000000      0x1e8 /usr/lib/gcc/arm-none-eabi/13.2.1/../../../arm-none-eabi/lib/thumb/v7e-m+fp/hard/libm.a(libm_a-s_round.o)
 .debug_abbrev  0x00000000      0x12d /usr/lib/gcc/arm-none-eabi/13.2.1/../../../arm-none-eabi/lib/thumb/v7e-m+fp/hard/libm.a(libm_a-s_round.o)
 .debug_loclists
                0x00000000      0x17b /usr/lib/gcc/arm-none-eabi/13.2.1/../../../arm-none-eabi/lib/thumb/v7e-m+fp/hard/libm.a(libm_a-s_round.o)
 .debug_aranges
                0x00000000       0x20 /usr/lib/gcc/arm-none-eabi/13.2.1/../../../arm-none-eabi/lib/thumb/v7e-m+fp/hard/libm.a(libm_a-s_round.o)
 .debug_rnglists
                0x00000000       0x24 /usr/lib/gcc/arm-none-eabi/13.2.1/../../../arm-none-eabi/lib/thumb/v7e-m+fp/hard/libm.a(libm_a-s_round.o)
 .debug_line    0x00000000      0x250 /usr/lib/gcc/arm-none-eabi/13.2.1/../../../arm-none-eabi/lib/thumb/v7e-m+fp/hard/libm.a(libm_a-s_round.o)
 .debug_str     0x00000000      0x20f /usr/lib/gcc/arm-none-eabi/13.2.1/../../../arm-none-eabi/lib/thumb/v7e-m+fp/hard/libm.a(libm_a-s_round.o)
 .comment       0x00000000       0x27 /usr/lib/gcc/arm-none-eabi/13.2.1/../../../arm-none-eabi/lib/thumb/v7e-m+fp/hard/libm.a(libm_a-s_round.o)
 .debug_frame   0x00000000       0x28 /usr/lib/gcc/arm-none-eabi/13.2.1/../../../arm-none-eabi/lib/thumb/v7e-m+fp/hard/libm.a(libm_a-s_round.o)
 .ARM.attributes
                0x00000000       0x34 /usr/lib/gcc/arm-none-eabi/13.2.1/../../../arm-none-eabi/lib/thumb/v7e-m+fp/hard/libm.a(libm_a-s_round.o)
 .data          0x00000000        0x0 /usr/lib/gcc/arm-none-eabi/13.2.1/../../../arm-none-eabi/lib/thumb/v7e-m+fp/hard/libm.a(libm_a-e_atan2.o)
 .bss           0x00000000        0x0 /usr/lib/gcc/arm-none-eabi/13.2.1/../../../arm-none-eabi/lib/thumb/v7e-m+fp/hard/libm.a(libm_a-e_atan2.o)
 .debug_info    0x00000000      0x331 /usr/lib/gcc/arm-none-eabi/13.2.1/../../../arm-none-eabi/lib/thumb/v7e-m+fp/hard/libm.a(libm_a-e_atan2.o)
 .debug_abbrev  0x00000000      0x197 /usr/lib/gcc/arm-none-eabi/13.2.1/../../../arm-none-eabi/lib/thumb/v7e-m+fp/hard/libm.a(libm_a-e_atan2.o)
 .debug_loclists
                0x00000000      0x251 /usr/lib/gcc/arm-none-eabi/13.2.1/../../../arm-none-eabi/lib/thumb/v7e-m+fp/hard/libm.a(libm_a-e_atan2.o)
 .debug_aranges
                0x00000000       0x20 /usr/lib/gcc/arm-none-eabi/13.2.1/../../../arm-none-eabi/lib/thumb/v7e-m+fp/hard/libm.a(libm_a-e_atan2.o)
 .debug_rnglists
                0x00000000       0x1e /usr/lib/gcc/arm-none-eabi/13.2.1/../../../arm-none-eabi/lib/thumb/v7e-m+fp/hard/libm.a(libm_a-e_atan2.o)
 .debug_line    0x00000000      0x2be /usr/lib/gcc/arm-none-eabi/13.2.1/../../../arm-none-eabi/lib/thumb/v7e-m+fp/hard/libm.a(libm_a-e_atan2.o)
 .debug_str     0x00000000      0x238 /usr/lib/gcc/arm-none-eabi/13.2.1/../../../arm-none-eabi/lib/thumb/v7e-m+fp/hard/libm.a(libm_a-e_atan2.o)
 .comment       0x00000000       0x27 /usr/lib/gcc/arm-none-eabi/13.2.1/../../../arm-none-eabi/lib/thumb/v7e-m+fp/hard/libm.a(libm_a-e_atan2.o)
 .debug_frame   0x00000000       0x44 /usr/lib/gcc/arm-none-eabi/13.2.1/../../../arm-none-eabi/lib/thumb/v7e-m+fp/hard/libm.a(libm_a-e_atan2.o)
 .ARM.attributes
                0x00000000       0x34 /usr/lib/gcc/arm-none-eabi/13.2.1/../../../arm-none-eabi/lib/thumb/v7e-m+fp/hard/libm.a(libm_a-e_atan2.o)
 .data          0x00000000        0x0 /usr/lib/gcc/arm-none-eabi/13.2.1/../../../arm-none-eabi/lib/thumb/v7e-m+fp/hard/libm.a(libm_a-w_asin.o)
 .bss           0x00000000        0x0 /usr/lib/gcc/arm-none-eabi/13.2.1/../../../arm-none-eabi/lib/thumb/v7e-m+fp/hard/libm.a(libm_a-w_asin.o)
 .debug_info    0x00000000      0x19c /usr/lib/gcc/arm-none-eabi/13.2.1/../../../arm-none-eabi/lib/thumb/v7e-m+fp/hard/libm.a(libm_a-w_asin.o)
 .debug_abbrev  0x00000000      0x101 /usr/lib/gcc/arm-none-eabi/13.2.1/../../../arm-none-eabi/lib/thumb/v7e-m+fp/hard/libm.a(libm_a-w_asin.o)
 .debug_loclists
                0x00000000       0x6c /usr/lib/gcc/arm-none-eabi/13.2.1/../../../arm-none-eabi/lib/thumb/v7e-m+fp/hard/libm.a(libm_a-w_asin.o)
 .debug_aranges
                0x00000000       0x20 /usr/lib/gcc/arm-none-eabi/13.2.1/../../../arm-none-eabi/lib/thumb/v7e-m+fp/hard/libm.a(libm_a-w_asin.o)
 .debug_line    0x00000000      0x17e /usr/lib/gcc/arm-none-eabi/13.2.1/../../../arm-none-eabi/lib/thumb/v7e-m+fp/hard/libm.a(libm_a-w_asin.o)
 .debug_str     0x00000000      0x1d0 /usr/lib/gcc/arm-none-eabi/13.2.1/../../../arm-none-eabi/lib/thumb/v7e-m+fp/hard/libm.a(libm_a-w_asin.o)
 .comment       0x00000000       0x27 /usr/lib/gcc/arm-none-eabi/13.2.1/../../../arm-none-eabi/lib/thumb/v7e-m+fp/hard/libm.a(libm_a-w_asin.o)
 .debug_frame   0x00000000       0x4c /usr/lib/gcc/arm-none-eabi/13.2.1/../../../arm-none-eabi/lib/thumb/v7e-m+fp/hard/libm.a(libm_a-w_asin.o)
 .ARM.attributes
                0x00000000       0x34 /usr/lib/gcc/arm-none-eabi/13.2.1/../../../arm-none-eabi/lib/thumb/v7e-m+fp/hard/libm.a(libm_a-w_asin.o)
 .data          0x00000000        0x0 /usr/lib/gcc/arm-none-eabi/13.2.1/../../../arm-none-eabi/lib/thumb/v7e-m+fp/hard/libm.a(libm_a-s_atan.o)
 .bss           0x00000000        0x0 /usr/lib/gcc/arm-none-eabi/13.2.1/../../../arm-none-eabi/lib/thumb/v7e-m+fp/hard/libm.a(libm_a-s_atan.o)
 .debug_info    0x00000000      0x485 /usr/lib/gcc/arm-none-eabi/13.2.1/../../../arm-none-eabi/lib/thumb/v7e-m+fp/hard/libm.a(libm_a-s_atan.o)
 .debug_abbrev  0x00000000      0x18d /usr/lib/gcc/arm-none-eabi/13.2.1/../../../arm-none-eabi/lib/thumb/v7e-m+fp/hard/libm.a(libm_a-s_atan.o)
 .debug_loclists
                0x00000000      0x293 /usr/lib/gcc/arm-none-eabi/13.2.1/../../../arm-none-eabi/lib/thumb/v7e-m+fp/hard/libm.a(libm_a-s_atan.o)
 .debug_aranges
                0x00000000       0x20 /usr/lib/gcc/arm-none-eabi/13.2.1/../../../arm-none-eabi/lib/thumb/v7e-m+fp/hard/libm.a(libm_a-s_atan.o)
 .debug_rnglists
                0x00000000       0x1b /usr/lib/gcc/arm-none-eabi/13.2.1/../../../arm-none-eabi/lib/thumb/v7e-m+fp/hard/libm.a(libm_a-s_atan.o)
 .debug_line    0x00000000      0x31c /usr/lib/gcc/arm-none-eabi/13.2.1/../../../arm-none-eabi/lib/thumb/v7e-m+fp/hard/libm.a(libm_a-s_atan.o)
 .debug_str     0x00000000      0x233 /usr/lib/gcc/arm-none-eabi/13.2.1/../../../arm-none-eabi/lib/thumb/v7e-m+fp/hard/libm.a(libm_a-s_atan.o)
 .comment       0x00000000       0x27 /usr/lib/gcc/arm-none-eabi/13.2.1/../../../arm-none-eabi/lib/thumb/v7e-m+fp/hard/libm.a(libm_a-s_atan.o)
 .debug_frame   0x00000000       0x38 /usr/lib/gcc/arm-none-eabi/13.2.1/../../../arm-none-eabi/lib/thumb/v7e-m+fp/hard/libm.a(libm_a-s_atan.o)
 .ARM.attributes
                0x00000000       0x34 /usr/lib/gcc/arm-none-eabi/13.2.1/../../../arm-none-eabi/lib/thumb/v7e-m+fp/hard/libm.a(libm_a-s_atan.o)
 .data          0x00000000        0x0 /usr/lib/gcc/arm-none-eabi/13.2.1/../../../arm-none-eabi/lib/thumb/v7e-m+fp/hard/libm.a(libm_a-e_asin.o)
 .bss           0x00000000        0x0 /usr/lib/gcc/arm-none-eabi/13.2.1/../../../arm-none-eabi/lib/thumb/v7e-m+fp/hard/libm.a(libm_a-e_asin.o)
 .debug_info    0x00000000      0x647 /usr/lib/gcc/arm-none-eabi/13.2.1/../../../arm-none-eabi/lib/thumb/v7e-m+fp/hard/libm.a(libm_a-e_asin.o)
 .debug_abbrev  0x00000000      0x194 /usr/lib/gcc/arm-none-eabi/13.2.1/../../../arm-none-eabi/lib/thumb/v7e-m+fp/hard/libm.a(libm_a-e_asin.o)
 .debug_loclists
                0x00000000      0x3a9 /usr/lib/gcc/arm-none-eabi/13.2.1/../../../arm-none-eabi/lib/thumb/v7e-m+fp/hard/libm.a(libm_a-e_asin.o)
 .debug_aranges
                0x00000000       0x20 /usr/lib/gcc/arm-none-eabi/13.2.1/../../../arm-none-eabi/lib/thumb/v7e-m+fp/hard/libm.a(libm_a-e_asin.o)
 .debug_rnglists
                0x00000000       0x21 /usr/lib/gcc/arm-none-eabi/13.2.1/../../../arm-none-eabi/lib/thumb/v7e-m+fp/hard/libm.a(libm_a-e_asin.o)
 .debug_line    0x00000000      0x33b /usr/lib/gcc/arm-none-eabi/13.2.1/../../../arm-none-eabi/lib/thumb/v7e-m+fp/hard/libm.a(libm_a-e_asin.o)
 .debug_str     0x00000000      0x25b /usr/lib/gcc/arm-none-eabi/13.2.1/../../../arm-none-eabi/lib/thumb/v7e-m+fp/hard/libm.a(libm_a-e_asin.o)
 .comment       0x00000000       0x27 /usr/lib/gcc/arm-none-eabi/13.2.1/../../../arm-none-eabi/lib/thumb/v7e-m+fp/hard/libm.a(libm_a-e_asin.o)
 .debug_frame   0x00000000       0x50 /usr/lib/gcc/arm-none-eabi/13.2.1/../../../arm-none-eabi/lib/thumb/v7e-m+fp/hard/libm.a(libm_a-e_asin.o)
 .ARM.attributes
                0x00000000       0x34 /usr/lib/gcc/arm-none-eabi/13.2.1/../../../arm-none-eabi/lib/thumb/v7e-m+fp/hard/libm.a(libm_a-e_asin.o)
 .data          0x00000000        0x0 /usr/lib/gcc/arm-none-eabi/13.2.1/../../../arm-none-eabi/lib/thumb/v7e-m+fp/hard/libm.a(libm_a-s_fabs.o)
 .bss           0x00000000        0x0 /usr/lib/gcc/arm-none-eabi/13.2.1/../../../arm-none-eabi/lib/thumb/v7e-m+fp/hard/libm.a(libm_a-s_fabs.o)
 .debug_info    0x00000000      0x14b /usr/lib/gcc/arm-none-eabi/13.2.1/../../../arm-none-eabi/lib/thumb/v7e-m+fp/hard/libm.a(libm_a-s_fabs.o)
 .debug_abbrev  0x00000000       0xec /usr/lib/gcc/arm-none-eabi/13.2.1/../../../arm-none-eabi/lib/thumb/v7e-m+fp/hard/libm.a(libm_a-s_fabs.o)
 .debug_loclists
                0x00000000       0x34 /usr/lib/gcc/arm-none-eabi/13.2.1/../../../arm-none-eabi/lib/thumb/v7e-m+fp/hard/libm.a(libm_a-s_fabs.o)
 .debug_aranges
                0x00000000       0x20 /usr/lib/gcc/arm-none-eabi/13.2.1/../../../arm-none-eabi/lib/thumb/v7e-m+fp/hard/libm.a(libm_a-s_fabs.o)
 .debug_line    0x00000000      0x152 /usr/lib/gcc/arm-none-eabi/13.2.1/../../../arm-none-eabi/lib/thumb/v7e-m+fp/hard/libm.a(libm_a-s_fabs.o)
 .debug_str     0x00000000      0x1d3 /usr/lib/gcc/arm-none-eabi/13.2.1/../../../arm-none-eabi/lib/thumb/v7e-m+fp/hard/libm.a(libm_a-s_fabs.o)
 .comment       0x00000000       0x27 /usr/lib/gcc/arm-none-eabi/13.2.1/../../../arm-none-eabi/lib/thumb/v7e-m+fp/hard/libm.a(libm_a-s_fabs.o)
 .debug_frame   0x00000000       0x20 /usr/lib/gcc/arm-none-eabi/13.2.1/../../../arm-none-eabi/lib/thumb/v7e-m+fp/hard/libm.a(libm_a-s_fabs.o)
 .ARM.attributes
                0x00000000       0x34 /usr/lib/gcc/arm-none-eabi/13.2.1/../../../arm-none-eabi/lib/thumb/v7e-m+fp/hard/libm.a(libm_a-s_fabs.o)
 .data          0x00000000        0x0 /usr/lib/gcc/arm-none-eabi/13.2.1/../../../arm-none-eabi/lib/thumb/v7e-m+fp/hard/libm.a(libm_a-s_nan.o)
 .bss           0x00000000        0x0 /usr/lib/gcc/arm-none-eabi/13.2.1/../../../arm-none-eabi/lib/thumb/v7e-m+fp/hard/libm.a(libm_a-s_nan.o)
 .debug_info    0x00000000       0xcd /usr/lib/gcc/arm-none-eabi/13.2.1/../../../arm-none-eabi/lib/thumb/v7e-m+fp/hard/libm.a(libm_a-s_nan.o)
 .debug_abbrev  0x00000000       0x77 /usr/lib/gcc/arm-none-eabi/13.2.1/../../../arm-none-eabi/lib/thumb/v7e-m+fp/hard/libm.a(libm_a-s_nan.o)
 .debug_aranges
                0x00000000       0x20 /usr/lib/gcc/arm-none-eabi/13.2.1/../../../arm-none-eabi/lib/thumb/v7e-m+fp/hard/libm.a(libm_a-s_nan.o)
 .debug_line    0x00000000       0xb0 /usr/lib/gcc/arm-none-eabi/13.2.1/../../../arm-none-eabi/lib/thumb/v7e-m+fp/hard/libm.a(libm_a-s_nan.o)
 .debug_str     0x00000000      0x1a6 /usr/lib/gcc/arm-none-eabi/13.2.1/../../../arm-none-eabi/lib/thumb/v7e-m+fp/hard/libm.a(libm_a-s_nan.o)
 .comment       0x00000000       0x27 /usr/lib/gcc/arm-none-eabi/13.2.1/../../../arm-none-eabi/lib/thumb/v7e-m+fp/hard/libm.a(libm_a-s_nan.o)
 .debug_frame   0x00000000       0x20 /usr/lib/gcc/arm-none-eabi/13.2.1/../../../arm-none-eabi/lib/thumb/v7e-m+fp/hard/libm.a(libm_a-s_nan.o)
 .ARM.attributes
                0x00000000       0x34 /usr/lib/gcc/arm-none-eabi/13.2.1/../../../arm-none-eabi/lib/thumb/v7e-m+fp/hard/libm.a(libm_a-s_nan.o)
 .data          0x00000000        0x0 /usr/lib/gcc/arm-none-eabi/13.2.1/../../../arm-none-eabi/lib/thumb/v7e-m+fp/hard/libm.a(libm_a-e_sqrt.o)
 .bss           0x00000000        0x0 /usr/lib/gcc/arm-none-eabi/13.2.1/../../../arm-none-eabi/lib/thumb/v7e-m+fp/hard/libm.a(libm_a-e_sqrt.o)
 .debug_info    0x00000000      0x2e8 /usr/lib/gcc/arm-none-eabi/13.2.1/../../../arm-none-eabi/lib/thumb/v7e-m+fp/hard/libm.a(libm_a-e_sqrt.o)
 .debug_abbrev  0x00000000      0x15e /usr/lib/gcc/arm-none-eabi/13.2.1/../../../arm-none-eabi/lib/thumb/v7e-m+fp/hard/libm.a(libm_a-e_sqrt.o)
 .debug_loclists
                0x00000000      0x426 /usr/lib/gcc/arm-none-eabi/13.2.1/../../../arm-none-eabi/lib/thumb/v7e-m+fp/hard/libm.a(libm_a-e_sqrt.o)
 .debug_aranges
                0x00000000       0x20 /usr/lib/gcc/arm-none-eabi/13.2.1/../../../arm-none-eabi/lib/thumb/v7e-m+fp/hard/libm.a(libm_a-e_sqrt.o)
 .debug_rnglists
                0x00000000       0x13 /usr/lib/gcc/arm-none-eabi/13.2.1/../../../arm-none-eabi/lib/thumb/v7e-m+fp/hard/libm.a(libm_a-e_sqrt.o)
 .debug_line    0x00000000      0x452 /usr/lib/gcc/arm-none-eabi/13.2.1/../../../arm-none-eabi/lib/thumb/v7e-m+fp/hard/libm.a(libm_a-e_sqrt.o)
 .debug_str     0x00000000      0x245 /usr/lib/gcc/arm-none-eabi/13.2.1/../../../arm-none-eabi/lib/thumb/v7e-m+fp/hard/libm.a(libm_a-e_sqrt.o)
 .comment       0x00000000       0x27 /usr/lib/gcc/arm-none-eabi/13.2.1/../../../arm-none-eabi/lib/thumb/v7e-m+fp/hard/libm.a(libm_a-e_sqrt.o)
 .debug_frame   0x00000000       0x34 /usr/lib/gcc/arm-none-eabi/13.2.1/../../../arm-none-eabi/lib/thumb/v7e-m+fp/hard/libm.a(libm_a-e_sqrt.o)
 .ARM.attributes
                0x00000000       0x34 /usr/lib/gcc/arm-none-eabi/13.2.1/../../../arm-none-eabi/lib/thumb/v7e-m+fp/hard/libm.a(libm_a-e_sqrt.o)

Memory Configuration

Name             Origin             Length             Attributes
RAM              0x20000000         0x00030000         xrw
CCMRAM           0x10000000         0x00010000         xrw
FLASH            0x08000000         0x00100000         xr
EXTSDRAM         0xc0000000         0x02000000         xrw
*default*        0x00000000         0xffffffff

Linker script and memory map

LOAD /usr/lib/gcc/arm-none-eabi/13.2.1/thumb/v7e-m+fp/hard/crti.o
LOAD /usr/lib/gcc/arm-none-eabi/13.2.1/thumb/v7e-m+fp/hard/crtbegin.o
LOAD /usr/lib/gcc/arm-none-eabi/13.2.1/../../../arm-none-eabi/lib/thumb/v7e-m+fp/hard/crt0.o
LOAD CMakeFiles/SMC.elf.dir/USER/main.c.obj
LOAD BSP/libBSP_LIB.a
LOAD CORE/libCORE_LIB.a
LOAD HARDWARE/libHARDWARE_LIB.a
LOAD Project/libProject_LIB.a
LOAD RTOS/libRTOS_LIB.a
LOAD USER/libUSER_LIB.a
LOAD BSP/gpio/libgpio_LIB.a
LOAD BSP/i2c/libi2c_LIB.a
LOAD BSP/spi/libspi_LIB.a
LOAD BSP/usart/libusart_LIB.a
LOAD HARDWARE/LCD/libLCD_LIB.a
LOAD HARDWARE/LCD/GUI/libGUI_LIB.a
LOAD HARDWARE/LCD/TOUCH/libTOUCH_LIB.a
LOAD HARDWARE/MPU6050/libMPU6050_LIB.a
LOAD HARDWARE/OLED/libOLED_LIB.a
LOAD HARDWARE/SDRAM/libSDRAM_LIB.a
LOAD Project/Dev/libProject_Dev_LIB.a
LOAD Project/Dev/ADC/libADC_LIB.a
LOAD Project/Dev/HW_201/libHW_201_LIB.a
LOAD Project/Dev/KEY/libKEY_LIB.a
LOAD Project/Dev/LED/libLED_LIB.a
LOAD Project/Dev/PWM/libPWM_LIB.a
LOAD Project/Dev/TB6612/libTB6612_LIB.a
LOAD Project/LIB/libProject_LIB_LIB.a
LOAD Project/LIB/Control/libControl_LIB.a
LOAD Project/LIB/PID/libPID_LIB.a
LOAD Project/LIB/Tools/libTools_LIB.a
LOAD RTOS/portable/libportable_LIB.a
LOAD RTOS/comment/libcomment_LIB.a
START GROUP
LOAD /usr/lib/gcc/arm-none-eabi/13.2.1/thumb/v7e-m+fp/hard/libgcc.a
LOAD /usr/lib/gcc/arm-none-eabi/13.2.1/../../../arm-none-eabi/lib/thumb/v7e-m+fp/hard/libg.a
LOAD /usr/lib/gcc/arm-none-eabi/13.2.1/../../../arm-none-eabi/lib/thumb/v7e-m+fp/hard/libc.a
END GROUP
LOAD /usr/lib/gcc/arm-none-eabi/13.2.1/thumb/v7e-m+fp/hard/crtend.o
LOAD /usr/lib/gcc/arm-none-eabi/13.2.1/thumb/v7e-m+fp/hard/crtn.o
                0x20030000                        _estack = (ORIGIN (RAM) + LENGTH (RAM))
                0x00000400                        _Min_Heap_Size = 0x400
                0x00001400                        _Min_Stack_Size = 0x1400

.isr_vector     0x08000000      0x1ac
                0x08000000                        . = ALIGN (0x4)
 *(.isr_vector)
 .isr_vector    0x08000000      0x1ac CORE/libCORE_LIB.a(stratup.c.obj)
                0x08000000                g_pfnVectors
                0x080001ac                        . = ALIGN (0x4)

.text           0x080001c0     0xe008
                0x080001c0                        . = ALIGN (0x4)
 *(.text)
 .text          0x080001c0       0x88 /usr/lib/gcc/arm-none-eabi/13.2.1/thumb/v7e-m+fp/hard/crtbegin.o
 .text          0x08000248      0x378 /usr/lib/gcc/arm-none-eabi/13.2.1/thumb/v7e-m+fp/hard/libgcc.a(_arm_addsubdf3.o)
                0x08000248                __aeabi_drsub
                0x08000250                __aeabi_dsub
                0x08000250                __subdf3
                0x08000254                __adddf3
                0x08000254                __aeabi_dadd
                0x080004cc                __aeabi_ui2d
                0x080004cc                __floatunsidf
                0x080004ec                __floatsidf
                0x080004ec                __aeabi_i2d
                0x08000510                __extendsfdf2
                0x08000510                __aeabi_f2d
                0x08000554                __aeabi_ul2d
                0x08000554                __floatundidf
                0x08000564                __floatdidf
                0x08000564                __aeabi_l2d
 .text          0x080005c0      0x424 /usr/lib/gcc/arm-none-eabi/13.2.1/thumb/v7e-m+fp/hard/libgcc.a(_arm_muldivdf3.o)
                0x080005c0                __aeabi_dmul
                0x080005c0                __muldf3
                0x08000814                __aeabi_ddiv
                0x08000814                __divdf3
 .text          0x080009e4      0x110 /usr/lib/gcc/arm-none-eabi/13.2.1/thumb/v7e-m+fp/hard/libgcc.a(_arm_cmpdf2.o)
                0x080009e4                __gtdf2
                0x080009e4                __gedf2
                0x080009ec                __ltdf2
                0x080009ec                __ledf2
                0x080009f4                __cmpdf2
                0x080009f4                __eqdf2
                0x080009f4                __nedf2
                0x08000a70                __aeabi_cdrcmple
                0x08000a80                __aeabi_cdcmple
                0x08000a80                __aeabi_cdcmpeq
                0x08000a90                __aeabi_dcmpeq
                0x08000aa4                __aeabi_dcmplt
                0x08000ab8                __aeabi_dcmple
                0x08000acc                __aeabi_dcmpge
                0x08000ae0                __aeabi_dcmpgt
 .text          0x08000af4       0x50 /usr/lib/gcc/arm-none-eabi/13.2.1/thumb/v7e-m+fp/hard/libgcc.a(_arm_fixdfsi.o)
                0x08000af4                __fixdfsi
                0x08000af4                __aeabi_d2iz
 .text          0x08000b44       0xa0 /usr/lib/gcc/arm-none-eabi/13.2.1/thumb/v7e-m+fp/hard/libgcc.a(_arm_truncdfsf2.o)
                0x08000b44                __aeabi_d2f
                0x08000b44                __truncdfsf2
 .text          0x08000be4       0xa4 /usr/lib/gcc/arm-none-eabi/13.2.1/../../../arm-none-eabi/lib/thumb/v7e-m+fp/hard/libg.a(libc_a-memset.o)
                0x08000be4                memset
 *fill*         0x08000c88       0x18 
 .text          0x08000ca0      0x2e0 /usr/lib/gcc/arm-none-eabi/13.2.1/../../../arm-none-eabi/lib/thumb/v7e-m+fp/hard/libg.a(libc_a-strcmp.o)
                0x08000ca0                strcmp
 .text          0x08000f80       0x64 /usr/lib/gcc/arm-none-eabi/13.2.1/../../../arm-none-eabi/lib/thumb/v7e-m+fp/hard/libg.a(libc_a-vsprintf.o)
                0x08000f80                vsprintf
                0x08000fb8                _vsprintf_r
 .text          0x08000fe4       0x5c /usr/lib/gcc/arm-none-eabi/13.2.1/../../../arm-none-eabi/lib/thumb/v7e-m+fp/hard/libg.a(libc_a-memcmp.o)
                0x08000fe4                memcmp
 .text          0x08001040      0x134 /usr/lib/gcc/arm-none-eabi/13.2.1/../../../arm-none-eabi/lib/thumb/v7e-m+fp/hard/libg.a(libc_a-memcpy.o)
                0x08001040                memcpy
 .text          0x08001174       0x50 /usr/lib/gcc/arm-none-eabi/13.2.1/../../../arm-none-eabi/lib/thumb/v7e-m+fp/hard/libg.a(libc_a-init.o)
                0x08001174                __libc_init_array
 .text          0x080011c4      0x224 /usr/lib/gcc/arm-none-eabi/13.2.1/../../../arm-none-eabi/lib/thumb/v7e-m+fp/hard/libg.a(libc_a-findfp.o)
                0x080012f4                __sfp
                0x08001398                __sinit
                0x080013b8                __sfp_lock_acquire
                0x080013bc                __sfp_lock_release
                0x080013c0                __fp_lock_all
                0x080013d4                __fp_unlock_all
 .text          0x080013e8       0x7c /usr/lib/gcc/arm-none-eabi/13.2.1/../../../arm-none-eabi/lib/thumb/v7e-m+fp/hard/libg.a(libc_a-puts.o)
                0x080013e8                _puts_r
                0x08001454                puts
 .text          0x08001464      0x300 /usr/lib/gcc/arm-none-eabi/13.2.1/../../../arm-none-eabi/lib/thumb/v7e-m+fp/hard/libg.a(libc_a-fvwrite.o)
                0x08001464                __sfvwrite_r
 .text          0x08001764        0xc /usr/lib/gcc/arm-none-eabi/13.2.1/../../../arm-none-eabi/lib/thumb/v7e-m+fp/hard/libg.a(libc_a-atexit.o)
                0x08001764                atexit
 .text          0x08001770       0x48 /usr/lib/gcc/arm-none-eabi/13.2.1/../../../arm-none-eabi/lib/thumb/v7e-m+fp/hard/libg.a(libc_a-printf.o)
                0x08001770                _printf_r
                0x08001790                printf
 .text          0x080017b8       0x28 /usr/lib/gcc/arm-none-eabi/13.2.1/../../../arm-none-eabi/lib/thumb/v7e-m+fp/hard/libg.a(libc_a-fini.o)
                0x080017b8                __libc_fini_array
 *fill*         0x080017e0       0x20 
 .text          0x08001800       0xd8 /usr/lib/gcc/arm-none-eabi/13.2.1/../../../arm-none-eabi/lib/thumb/v7e-m+fp/hard/libg.a(libc_a-strlen.o)
                0x08001800                strlen
 .text          0x080018d8       0x44 /usr/lib/gcc/arm-none-eabi/13.2.1/../../../arm-none-eabi/lib/thumb/v7e-m+fp/hard/libg.a(libc_a-fwalk.o)
                0x080018d8                _fwalk_sglue
 *fill*         0x0800191c        0x4 
 .text          0x08001920     0x14ac /usr/lib/gcc/arm-none-eabi/13.2.1/../../../arm-none-eabi/lib/thumb/v7e-m+fp/hard/libg.a(libc_a-vfprintf.o)
                0x08001920                _vfprintf_r
                0x08002d44                vfprintf
 *fill*         0x08002dcc        0x4 
 .text          0x08002dd0       0xa0 /usr/lib/gcc/arm-none-eabi/13.2.1/../../../arm-none-eabi/lib/thumb/v7e-m+fp/hard/libg.a(libc_a-memchr.o)
                0x08002dd0                memchr
 .text          0x08002e70     0x13c0 /usr/lib/gcc/arm-none-eabi/13.2.1/../../../arm-none-eabi/lib/thumb/v7e-m+fp/hard/libg.a(libc_a-svfprintf.o)
                0x08002e70                _svfprintf_r
 .text          0x08004230      0x1ac /usr/lib/gcc/arm-none-eabi/13.2.1/../../../arm-none-eabi/lib/thumb/v7e-m+fp/hard/libg.a(libc_a-fflush.o)
                0x08004230                __sflush_r
                0x08004368                _fflush_r
                0x08004394                fflush
 .text          0x080043dc      0x100 /usr/lib/gcc/arm-none-eabi/13.2.1/../../../arm-none-eabi/lib/thumb/v7e-m+fp/hard/libg.a(libc_a-memmove.o)
                0x080043dc                memmove
 .text          0x080044dc      0x554 /usr/lib/gcc/arm-none-eabi/13.2.1/../../../arm-none-eabi/lib/thumb/v7e-m+fp/hard/libg.a(libc_a-mallocr.o)
                0x080044dc                _malloc_r
 .text          0x08004a30      0xfb0 /usr/lib/gcc/arm-none-eabi/13.2.1/../../../arm-none-eabi/lib/thumb/v7e-m+fp/hard/libg.a(libc_a-dtoa.o)
                0x08004b5c                _dtoa_r
 .text          0x080059e0       0xc4 /usr/lib/gcc/arm-none-eabi/13.2.1/../../../arm-none-eabi/lib/thumb/v7e-m+fp/hard/libg.a(libc_a-wsetup.o)
                0x080059e0                __swsetup_r
 .text          0x08005aa4      0x2b0 /usr/lib/gcc/arm-none-eabi/13.2.1/../../../arm-none-eabi/lib/thumb/v7e-m+fp/hard/libg.a(libc_a-freer.o)
                0x08005aa4                _malloc_trim_r
                0x08005b5c                _free_r
 .text          0x08005d54       0x90 /usr/lib/gcc/arm-none-eabi/13.2.1/../../../arm-none-eabi/lib/thumb/v7e-m+fp/hard/libg.a(libc_a-fclose.o)
                0x08005d54                _fclose_r
                0x08005dd4                fclose
 .text          0x08005de4       0x1c /usr/lib/gcc/arm-none-eabi/13.2.1/../../../arm-none-eabi/lib/thumb/v7e-m+fp/hard/libg.a(libc_a-sysconf.o)
                0x08005de4                sysconf
 .text          0x08005e00       0x94 /usr/lib/gcc/arm-none-eabi/13.2.1/../../../arm-none-eabi/lib/thumb/v7e-m+fp/hard/libg.a(libc_a-stdio.o)
                0x08005e00                __sread
                0x08005e24                __seofread
                0x08005e28                __swrite
                0x08005e68                __sseek
                0x08005e8c                __sclose
 .text          0x08005e94       0x64 /usr/lib/gcc/arm-none-eabi/13.2.1/../../../arm-none-eabi/lib/thumb/v7e-m+fp/hard/libg.a(libc_a-__atexit.o)
                0x08005e94                __register_exitproc
 .text          0x08005ef8      0x344 /usr/lib/gcc/arm-none-eabi/13.2.1/../../../arm-none-eabi/lib/thumb/v7e-m+fp/hard/libg.a(libc_a-reallocr.o)
                0x08005ef8                _realloc_r
 .text          0x0800623c        0x8 /usr/lib/gcc/arm-none-eabi/13.2.1/../../../arm-none-eabi/lib/thumb/v7e-m+fp/hard/libg.a(libc_a-mlock.o)
                0x0800623c                __malloc_lock
                0x08006240                __malloc_unlock
 .text          0x08006244       0x58 /usr/lib/gcc/arm-none-eabi/13.2.1/../../../arm-none-eabi/lib/thumb/v7e-m+fp/hard/libg.a(libc_a-ssprint_r.o)
                0x08006244                __ssprint_r
 .text          0x0800629c       0x24 /usr/lib/gcc/arm-none-eabi/13.2.1/../../../arm-none-eabi/lib/thumb/v7e-m+fp/hard/libg.a(libc_a-sbrkr.o)
                0x0800629c                _sbrk_r
 .text          0x080062c0       0x20 /usr/lib/gcc/arm-none-eabi/13.2.1/../../../arm-none-eabi/lib/thumb/v7e-m+fp/hard/libg.a(libc_a-sprint_r.o)
                0x080062c0                __sprint_r
 .text          0x080062e0       0x4c /usr/lib/gcc/arm-none-eabi/13.2.1/../../../arm-none-eabi/lib/thumb/v7e-m+fp/hard/libg.a(libc_a-assert.o)
                0x080062e0                __assert_func
                0x08006320                __assert
 .text          0x0800632c      0xab8 /usr/lib/gcc/arm-none-eabi/13.2.1/../../../arm-none-eabi/lib/thumb/v7e-m+fp/hard/libg.a(libc_a-mprec.o)
                0x0800632c                _Balloc
                0x08006378                _Bfree
                0x0800638c                __multadd
                0x0800642c                __s2b
                0x080064e0                __hi0bits
                0x08006524                __lo0bits
                0x08006584                __i2b
                0x080065e0                __multiply
                0x0800674c                __pow5mult
                0x08006800                __lshift
                0x080068f0                __mcmp
                0x08006934                __mdiff
                0x08006aac                __ulp
                0x08006b10                __b2d
                0x08006bcc                __d2b
                0x08006c8c                __ratio
                0x08006cec                _mprec_log10
                0x08006d2c                __copybits
                0x08006d88                __any_on
 .text          0x08006de4       0x14 /usr/lib/gcc/arm-none-eabi/13.2.1/../../../arm-none-eabi/lib/thumb/v7e-m+fp/hard/libg.a(libc_a-localeconv.o)
                0x08006de4                __localeconv_l
                0x08006de8                _localeconv_r
                0x08006df0                localeconv
 .text          0x08006df8      0x13c /usr/lib/gcc/arm-none-eabi/13.2.1/../../../arm-none-eabi/lib/thumb/v7e-m+fp/hard/libg.a(libc_a-makebuf.o)
                0x08006df8                __smakebuf_r
                0x08006ed4                __swhatbuf_r
 .text          0x08006f34       0x40 /usr/lib/gcc/arm-none-eabi/13.2.1/../../../arm-none-eabi/lib/thumb/v7e-m+fp/hard/libg.a(libc_a-mbtowc_r.o)
                0x08006f34                _mbtowc_r
                0x08006f48                __ascii_mbtowc
 .text          0x08006f74        0xc /usr/lib/gcc/arm-none-eabi/13.2.1/../../../arm-none-eabi/lib/thumb/v7e-m+fp/hard/libg.a(libc_a-errno.o)
                0x08006f74                __errno
 .text          0x08006f80       0x10 /usr/lib/gcc/arm-none-eabi/13.2.1/../../../arm-none-eabi/lib/thumb/v7e-m+fp/hard/libg.a(libc_a-abort.o)
                0x08006f80                abort
 .text          0x08006f90       0x6c /usr/lib/gcc/arm-none-eabi/13.2.1/../../../arm-none-eabi/lib/thumb/v7e-m+fp/hard/libg.a(libc_a-callocr.o)
                0x08006f90                _calloc_r
 .text          0x08006ffc       0xc0 /usr/lib/gcc/arm-none-eabi/13.2.1/../../../arm-none-eabi/lib/thumb/v7e-m+fp/hard/libg.a(libc_a-ssputs_r.o)
                0x08006ffc                __ssputs_r
 .text          0x080070bc       0x44 /usr/lib/gcc/arm-none-eabi/13.2.1/../../../arm-none-eabi/lib/thumb/v7e-m+fp/hard/libg.a(libc_a-fiprintf.o)
                0x080070bc                _fiprintf_r
                0x080070d8                fiprintf
 .text          0x08007100       0x30 /usr/lib/gcc/arm-none-eabi/13.2.1/../../../arm-none-eabi/lib/thumb/v7e-m+fp/hard/libg.a(libc_a-wctomb_r.o)
                0x08007100                _wctomb_r
                0x08007114                __ascii_wctomb
 .text          0x08007130      0x280 /usr/lib/gcc/arm-none-eabi/13.2.1/../../../arm-none-eabi/lib/thumb/v7e-m+fp/hard/libg.a(libc_a-signal.o)
                0x08007130                _init_signal_r
                0x08007160                _signal_r
                0x080071b0                _raise_r
                0x08007204                __sigtramp_r
                0x08007268                raise
                0x080072c0                signal
                0x08007310                _init_signal
                0x08007348                __sigtramp
 .text          0x080073b0      0xb44 /usr/lib/gcc/arm-none-eabi/13.2.1/../../../arm-none-eabi/lib/thumb/v7e-m+fp/hard/libg.a(libc_a-vfiprintf.o)
                0x080073b0                _vfiprintf_r
                0x08007e6c                vfiprintf
 .text          0x08007ef4       0x2c /usr/lib/gcc/arm-none-eabi/13.2.1/thumb/v7e-m+fp/hard/libgcc.a(_arm_unorddf2.o)
                0x08007ef4                __aeabi_dcmpun
                0x08007ef4                __unorddf2
 .text          0x08007f20        0x4 /usr/lib/gcc/arm-none-eabi/13.2.1/../../../arm-none-eabi/lib/thumb/v7e-m+fp/hard/libm.a(libm_a-w_atan2.o)
                0x08007f20                atan2
 *fill*         0x08007f24        0x4 
 .text          0x08007f28      0x1a8 /usr/lib/gcc/arm-none-eabi/13.2.1/../../../arm-none-eabi/lib/thumb/v7e-m+fp/hard/libm.a(libm_a-e_atan2.o)
                0x08007f28                __ieee754_atan2
 .text          0x080080d0       0x68 /usr/lib/gcc/arm-none-eabi/13.2.1/../../../arm-none-eabi/lib/thumb/v7e-m+fp/hard/libm.a(libm_a-w_asin.o)
                0x080080d0                asin
 .text          0x08008138      0x34c /usr/lib/gcc/arm-none-eabi/13.2.1/../../../arm-none-eabi/lib/thumb/v7e-m+fp/hard/libm.a(libm_a-s_atan.o)
                0x08008138                atan
 *fill*         0x08008484        0x4 
 .text          0x08008488      0x484 /usr/lib/gcc/arm-none-eabi/13.2.1/../../../arm-none-eabi/lib/thumb/v7e-m+fp/hard/libm.a(libm_a-e_asin.o)
                0x08008488                __ieee754_asin
 .text          0x0800890c       0x10 /usr/lib/gcc/arm-none-eabi/13.2.1/../../../arm-none-eabi/lib/thumb/v7e-m+fp/hard/libm.a(libm_a-s_fabs.o)
                0x0800890c                fabs
 *fill*         0x0800891c        0x4 
 .text          0x08008920       0x10 /usr/lib/gcc/arm-none-eabi/13.2.1/../../../arm-none-eabi/lib/thumb/v7e-m+fp/hard/libm.a(libm_a-s_nan.o)
                0x08008920                nan
 .text          0x08008930      0x1ec /usr/lib/gcc/arm-none-eabi/13.2.1/../../../arm-none-eabi/lib/thumb/v7e-m+fp/hard/libm.a(libm_a-e_sqrt.o)
                0x08008930                __ieee754_sqrt
 *(.text*)
 .text.main     0x08008b1c       0x74 CMakeFiles/SMC.elf.dir/USER/main.c.obj
                0x08008b1c                main
 .text.BSP_Init
                0x08008b90       0xe8 CMakeFiles/SMC.elf.dir/USER/main.c.obj
                0x08008b90                BSP_Init
 .text.TIM3_IRQHandler
                0x08008c78       0x20 CMakeFiles/SMC.elf.dir/USER/main.c.obj
                0x08008c78                TIM3_IRQHandler
 .text.USART2_IRQHandler
                0x08008c98       0x20 CMakeFiles/SMC.elf.dir/USER/main.c.obj
                0x08008c98                USART2_IRQHandler
 .text.USART3_IRQHandler
                0x08008cb8       0x20 CMakeFiles/SMC.elf.dir/USER/main.c.obj
                0x08008cb8                USART3_IRQHandler
 .text.bsp_systick_delay_us
                0x08008cd8       0x38 BSP/libBSP_LIB.a(sys.c.obj)
                0x08008cd8                bsp_systick_delay_us
 .text.bsp_systick_delay_ms
                0x08008d10       0x18 BSP/libBSP_LIB.a(sys.c.obj)
                0x08008d10                bsp_systick_delay_ms
 .text.NVIC_Configuration
                0x08008d28       0xa8 BSP/libBSP_LIB.a(sys.c.obj)
                0x08008d28                NVIC_Configuration
 .text._exit    0x08008dd0        0x2 BSP/libBSP_LIB.a(sys.c.obj)
                0x08008dd0                _exit
 .text._read_r  0x08008dd2        0x2 BSP/libBSP_LIB.a(sys.c.obj)
                0x08008dd2                _read_r
 .text._lseek_r
                0x08008dd4        0x2 BSP/libBSP_LIB.a(sys.c.obj)
                0x08008dd4                _lseek_r
 .text._kill_r  0x08008dd6        0x2 BSP/libBSP_LIB.a(sys.c.obj)
                0x08008dd6                _kill_r
 .text._isatty_r
                0x08008dd8        0x2 BSP/libBSP_LIB.a(sys.c.obj)
                0x08008dd8                _isatty_r
 .text._getpid_r
                0x08008dda        0x2 BSP/libBSP_LIB.a(sys.c.obj)
                0x08008dda                _getpid_r
 .text._fstat_r
                0x08008ddc        0x2 BSP/libBSP_LIB.a(sys.c.obj)
                0x08008ddc                _fstat_r
 .text._close_r
                0x08008dde        0x2 BSP/libBSP_LIB.a(sys.c.obj)
                0x08008dde                _close_r
 .text._write_r
                0x08008de0        0x2 BSP/libBSP_LIB.a(sys.c.obj)
                0x08008de0                _write_r
 .text._sbrk    0x08008de2        0x2 BSP/libBSP_LIB.a(sys.c.obj)
                0x08008de2                _sbrk
 .text.CMD_Callback
                0x08008de4        0x2 BSP/libBSP_LIB.a(Serial.c.obj)
                0x08008de4                CMD_Callback
 .text.DR_Eevet_Callback
                0x08008de6        0x2 BSP/libBSP_LIB.a(Serial.c.obj)
                0x08008de6                DR_Eevet_Callback
 .text.Stde_DataTypeDef_Init
                0x08008de8       0x58 BSP/libBSP_LIB.a(Serial.c.obj)
                0x08008de8                Stde_DataTypeDef_Init
 .text.STDE_UART
                0x08008e40       0xe0 BSP/libBSP_LIB.a(Serial.c.obj)
                0x08008e40                STDE_UART
 .text.USART_Deal
                0x08008f20       0x52 BSP/libBSP_LIB.a(Serial.c.obj)
                0x08008f20                USART_Deal
 *fill*         0x08008f72        0x2 
 .text.bsp_usart_1_inti
                0x08008f74      0x100 BSP/libBSP_LIB.a(usart.c.obj)
                0x08008f74                bsp_usart_1_inti
 .text.bsp_usart_2_inti
                0x08009074       0xf8 BSP/libBSP_LIB.a(usart.c.obj)
                0x08009074                bsp_usart_2_inti
 .text.bsp_usart_3_inti
                0x0800916c      0x128 BSP/libBSP_LIB.a(usart.c.obj)
                0x0800916c                bsp_usart_3_inti
 .text.bsp_uart_4_inti
                0x08009294      0x100 BSP/libBSP_LIB.a(usart.c.obj)
                0x08009294                bsp_uart_4_inti
 .text.bsp_uart_5_inti
                0x08009394      0x114 BSP/libBSP_LIB.a(usart.c.obj)
                0x08009394                bsp_uart_5_inti
 .text.UART4_IRQHandler
                0x080094a8       0x20 BSP/libBSP_LIB.a(usart.c.obj)
                0x080094a8                UART4_IRQHandler
 .text.UART5_IRQHandler
                0x080094c8       0x20 BSP/libBSP_LIB.a(usart.c.obj)
                0x080094c8                UART5_IRQHandler
 .text.bsp_gpio_init
                0x080094e8       0x8c BSP/libBSP_LIB.a(gpio.c.obj)
                0x080094e8                bsp_gpio_init
 .text.bsp_gpio_af_set
                0x08009574       0x66 BSP/libBSP_LIB.a(gpio.c.obj)
                0x08009574                bsp_gpio_af_set
 .text.GPIO_Init
                0x080095da       0xa4 BSP/libBSP_LIB.a(stm32f4xx_gpio.c.obj)
                0x080095da                GPIO_Init
 .text.GPIO_ReadInputDataBit
                0x0800967e        0xe BSP/libBSP_LIB.a(stm32f4xx_gpio.c.obj)
                0x0800967e                GPIO_ReadInputDataBit
 .text.GPIO_SetBits
                0x0800968c        0x4 BSP/libBSP_LIB.a(stm32f4xx_gpio.c.obj)
                0x0800968c                GPIO_SetBits
 .text.GPIO_ResetBits
                0x08009690        0x6 BSP/libBSP_LIB.a(stm32f4xx_gpio.c.obj)
                0x08009690                GPIO_ResetBits
 *fill*         0x08009696        0x2 
 .text.NVIC_PriorityGroupConfig
                0x08009698       0x14 BSP/libBSP_LIB.a(misc.c.obj)
                0x08009698                NVIC_PriorityGroupConfig
 .text.NVIC_Init
                0x080096ac       0x64 BSP/libBSP_LIB.a(misc.c.obj)
                0x080096ac                NVIC_Init
 .text.RCC_AHB1PeriphClockCmd
                0x08009710       0x1c BSP/libBSP_LIB.a(stm32f4xx_rcc.c.obj)
                0x08009710                RCC_AHB1PeriphClockCmd
 .text.RCC_APB1PeriphClockCmd
                0x0800972c       0x1c BSP/libBSP_LIB.a(stm32f4xx_rcc.c.obj)
                0x0800972c                RCC_APB1PeriphClockCmd
 .text.RCC_APB2PeriphClockCmd
                0x08009748       0x1c BSP/libBSP_LIB.a(stm32f4xx_rcc.c.obj)
                0x08009748                RCC_APB2PeriphClockCmd
 .text.Default_Handler
                0x08009764        0x2 CORE/libCORE_LIB.a(stratup.c.obj)
                0x08009764                RTC_Alarm_IRQHandler
                0x08009764                HASH_RNG_IRQHandler
                0x08009764                EXTI2_IRQHandler
                0x08009764                TIM8_CC_IRQHandler
                0x08009764                DebugMon_Handler
                0x08009764                UART8_IRQHandler
                0x08009764                SPI4_IRQHandler
                0x08009764                TIM1_CC_IRQHandler
                0x08009764                DMA2_Stream5_IRQHandler
                0x08009764                HardFault_Handler
                0x08009764                DMA1_Stream5_IRQHandler
                0x08009764                PVD_IRQHandler
                0x08009764                SDIO_IRQHandler
                0x08009764                TAMP_STAMP_IRQHandler
                0x08009764                NMI_Handler
                0x08009764                CAN2_RX1_IRQHandler
                0x08009764                EXTI3_IRQHandler
                0x08009764                TIM8_TRG_COM_TIM14_IRQHandler
                0x08009764                TIM1_UP_TIM10_IRQHandler
                0x08009764                TIM8_UP_TIM13_IRQHandler
                0x08009764                I2C3_ER_IRQHandler
                0x08009764                EXTI0_IRQHandler
                0x08009764                I2C2_EV_IRQHandler
                0x08009764                DMA1_Stream2_IRQHandler
                0x08009764                CAN1_RX0_IRQHandler
                0x08009764                FPU_IRQHandler
                0x08009764                OTG_HS_WKUP_IRQHandler
                0x08009764                UsageFault_Handler
                0x08009764                LTDC_ER_IRQHandler
                0x08009764                CAN2_SCE_IRQHandler
                0x08009764                DMA2_Stream2_IRQHandler
                0x08009764                SPI1_IRQHandler
                0x08009764                TIM6_DAC_IRQHandler
                0x08009764                TIM1_BRK_TIM9_IRQHandler
                0x08009764                DCMI_IRQHandler
                0x08009764                CAN2_RX0_IRQHandler
                0x08009764                DMA2_Stream3_IRQHandler
                0x08009764                USART6_IRQHandler
                0x08009764                CAN1_RX1_IRQHandler
                0x08009764                DMA2_Stream0_IRQHandler
                0x08009764                TIM4_IRQHandler
                0x08009764                I2C1_EV_IRQHandler
                0x08009764                DMA1_Stream6_IRQHandler
                0x08009764                DMA1_Stream1_IRQHandler
                0x08009764                RCC_IRQHandler
                0x08009764                TIM8_BRK_TIM12_IRQHandler
                0x08009764                Default_Handler
                0x08009764                EXTI15_10_IRQHandler
                0x08009764                ADC_IRQHandler
                0x08009764                DMA1_Stream7_IRQHandler
                0x08009764                SPI5_IRQHandler
                0x08009764                TIM7_IRQHandler
                0x08009764                CAN2_TX_IRQHandler
                0x08009764                TIM5_IRQHandler
                0x08009764                DMA2_Stream7_IRQHandler
                0x08009764                I2C3_EV_IRQHandler
                0x08009764                EXTI9_5_IRQHandler
                0x08009764                RTC_WKUP_IRQHandler
                0x08009764                LTDC_IRQHandler
                0x08009764                ETH_WKUP_IRQHandler
                0x08009764                SPI2_IRQHandler
                0x08009764                OTG_HS_EP1_IN_IRQHandler
                0x08009764                MemManage_Handler
                0x08009764                DMA1_Stream0_IRQHandler
                0x08009764                CAN1_TX_IRQHandler
                0x08009764                EXTI4_IRQHandler
                0x08009764                ETH_IRQHandler
                0x08009764                OTG_HS_EP1_OUT_IRQHandler
                0x08009764                WWDG_IRQHandler
                0x08009764                SPI6_IRQHandler
                0x08009764                TIM2_IRQHandler
                0x08009764                OTG_FS_WKUP_IRQHandler
                0x08009764                TIM1_TRG_COM_TIM11_IRQHandler
                0x08009764                OTG_HS_IRQHandler
                0x08009764                DMA2D_IRQHandler
                0x08009764                EXTI1_IRQHandler
                0x08009764                UART7_IRQHandler
                0x08009764                I2C2_ER_IRQHandler
                0x08009764                DMA2_Stream1_IRQHandler
                0x08009764                CAN1_SCE_IRQHandler
                0x08009764                FLASH_IRQHandler
                0x08009764                DMA2_Stream4_IRQHandler
                0x08009764                BusFault_Handler
                0x08009764                USART1_IRQHandler
                0x08009764                OTG_FS_IRQHandler
                0x08009764                SPI3_IRQHandler
                0x08009764                DMA1_Stream4_IRQHandler
                0x08009764                I2C1_ER_IRQHandler
                0x08009764                FMC_IRQHandler
                0x08009764                DMA2_Stream6_IRQHandler
                0x08009764                SAI1_IRQHandler
                0x08009764                DMA1_Stream3_IRQHandler
 *fill*         0x08009766        0x2 
 .text.Reset_Handler
                0x08009768       0x4c CORE/libCORE_LIB.a(stratup.c.obj)
                0x08009768                Reset_Handler
 .text.SetSysClock
                0x080097b4       0xec CORE/libCORE_LIB.a(system_stm32f4xx.c.obj)
 .text.SystemInit
                0x080098a0       0x50 CORE/libCORE_LIB.a(system_stm32f4xx.c.obj)
                0x080098a0                SystemInit
 .text.set_int_enable
                0x080098f0       0x98 HARDWARE/libHARDWARE_LIB.a(inv_mpu.c.obj)
 .text.mpu_reset_fifo
                0x08009988      0x1f8 HARDWARE/libHARDWARE_LIB.a(inv_mpu.c.obj)
                0x08009988                mpu_reset_fifo
 .text.mpu_set_gyro_fsr
                0x08009b80       0x98 HARDWARE/libHARDWARE_LIB.a(inv_mpu.c.obj)
                0x08009b80                mpu_set_gyro_fsr
 .text.mpu_get_accel_fsr
                0x08009c18       0x44 HARDWARE/libHARDWARE_LIB.a(inv_mpu.c.obj)
                0x08009c18                mpu_get_accel_fsr
 .text.mpu_set_accel_fsr
                0x08009c5c       0x94 HARDWARE/libHARDWARE_LIB.a(inv_mpu.c.obj)
                0x08009c5c                mpu_set_accel_fsr
 .text.mpu_set_lpf
                0x08009cf0       0x94 HARDWARE/libHARDWARE_LIB.a(inv_mpu.c.obj)
                0x08009cf0                mpu_set_lpf
 .text.mpu_configure_fifo
                0x08009d84       0x64 HARDWARE/libHARDWARE_LIB.a(inv_mpu.c.obj)
                0x08009d84                mpu_configure_fifo
 .text.mpu_read_fifo_stream
                0x08009de8       0xc0 HARDWARE/libHARDWARE_LIB.a(inv_mpu.c.obj)
                0x08009de8                mpu_read_fifo_stream
 .text.mpu_set_bypass
                0x08009ea8      0x168 HARDWARE/libHARDWARE_LIB.a(inv_mpu.c.obj)
                0x08009ea8                mpu_set_bypass
 .text.mpu_set_int_latched
                0x0800a010       0x74 HARDWARE/libHARDWARE_LIB.a(inv_mpu.c.obj)
                0x0800a010                mpu_set_int_latched
 .text.mpu_lp_accel_mode
                0x0800a084       0xdc HARDWARE/libHARDWARE_LIB.a(inv_mpu.c.obj)
                0x0800a084                mpu_lp_accel_mode
 .text.mpu_set_sample_rate
                0x0800a160       0xa0 HARDWARE/libHARDWARE_LIB.a(inv_mpu.c.obj)
                0x0800a160                mpu_set_sample_rate
 .text.mpu_set_sensors
                0x0800a200       0xe4 HARDWARE/libHARDWARE_LIB.a(inv_mpu.c.obj)
                0x0800a200                mpu_set_sensors
 .text.mpu_init
                0x0800a2e4      0x1b8 HARDWARE/libHARDWARE_LIB.a(inv_mpu.c.obj)
                0x0800a2e4                mpu_init
 .text.mpu_write_mem
                0x0800a49c       0x74 HARDWARE/libHARDWARE_LIB.a(inv_mpu.c.obj)
                0x0800a49c                mpu_write_mem
 .text.mpu_read_mem
                0x0800a510       0x74 HARDWARE/libHARDWARE_LIB.a(inv_mpu.c.obj)
                0x0800a510                mpu_read_mem
 .text.mpu_load_firmware
                0x0800a584       0xb4 HARDWARE/libHARDWARE_LIB.a(inv_mpu.c.obj)
                0x0800a584                mpu_load_firmware
 .text.mpu_set_dmp_state
                0x0800a638       0x94 HARDWARE/libHARDWARE_LIB.a(inv_mpu.c.obj)
                0x0800a638                mpu_set_dmp_state
 .text.inv_row_2_scale
                0x0800a6cc       0x3a HARDWARE/libHARDWARE_LIB.a(inv_mpu.c.obj)
                0x0800a6cc                inv_row_2_scale
 .text.inv_orientation_matrix_to_scalar
                0x0800a706       0x24 HARDWARE/libHARDWARE_LIB.a(inv_mpu.c.obj)
                0x0800a706                inv_orientation_matrix_to_scalar
 .text.mget_ms  0x0800a72a        0x2 HARDWARE/libHARDWARE_LIB.a(inv_mpu.c.obj)
                0x0800a72a                mget_ms
 .text.mpu_dmp_init
                0x0800a72c       0x98 HARDWARE/libHARDWARE_LIB.a(inv_mpu.c.obj)
                0x0800a72c                mpu_dmp_init
 *fill*         0x0800a7c4        0x4 
 .text.mpu_dmp_get_data
                0x0800a7c8      0x18c HARDWARE/libHARDWARE_LIB.a(inv_mpu.c.obj)
                0x0800a7c8                mpu_dmp_get_data
 .text.decode_gesture
                0x0800a954       0x3c HARDWARE/libHARDWARE_LIB.a(inv_mpu_dmp_motion_driver.c.obj)
 .text.dmp_load_motion_driver_firmware
                0x0800a990       0x18 HARDWARE/libHARDWARE_LIB.a(inv_mpu_dmp_motion_driver.c.obj)
                0x0800a990                dmp_load_motion_driver_firmware
 .text.dmp_set_orientation
                0x0800a9a8      0x14c HARDWARE/libHARDWARE_LIB.a(inv_mpu_dmp_motion_driver.c.obj)
                0x0800a9a8                dmp_set_orientation
 .text.dmp_set_fifo_rate
                0x0800aaf4       0x68 HARDWARE/libHARDWARE_LIB.a(inv_mpu_dmp_motion_driver.c.obj)
                0x0800aaf4                dmp_set_fifo_rate
 .text.dmp_set_tap_thresh
                0x0800ab5c      0x1d4 HARDWARE/libHARDWARE_LIB.a(inv_mpu_dmp_motion_driver.c.obj)
                0x0800ab5c                dmp_set_tap_thresh
 .text.dmp_set_tap_axes
                0x0800ad30       0x4e HARDWARE/libHARDWARE_LIB.a(inv_mpu_dmp_motion_driver.c.obj)
                0x0800ad30                dmp_set_tap_axes
 .text.dmp_set_tap_count
                0x0800ad7e       0x2c HARDWARE/libHARDWARE_LIB.a(inv_mpu_dmp_motion_driver.c.obj)
                0x0800ad7e                dmp_set_tap_count
 *fill*         0x0800adaa        0x2 
 .text.dmp_set_tap_time
                0x0800adac       0x30 HARDWARE/libHARDWARE_LIB.a(inv_mpu_dmp_motion_driver.c.obj)
                0x0800adac                dmp_set_tap_time
 .text.dmp_set_tap_time_multi
                0x0800addc       0x30 HARDWARE/libHARDWARE_LIB.a(inv_mpu_dmp_motion_driver.c.obj)
                0x0800addc                dmp_set_tap_time_multi
 .text.dmp_set_shake_reject_thresh
                0x0800ae0c       0x44 HARDWARE/libHARDWARE_LIB.a(inv_mpu_dmp_motion_driver.c.obj)
                0x0800ae0c                dmp_set_shake_reject_thresh
 .text.dmp_set_shake_reject_time
                0x0800ae50       0x2c HARDWARE/libHARDWARE_LIB.a(inv_mpu_dmp_motion_driver.c.obj)
                0x0800ae50                dmp_set_shake_reject_time
 .text.dmp_set_shake_reject_timeout
                0x0800ae7c       0x2c HARDWARE/libHARDWARE_LIB.a(inv_mpu_dmp_motion_driver.c.obj)
                0x0800ae7c                dmp_set_shake_reject_timeout
 .text.dmp_enable_gyro_cal
                0x0800aea8       0x44 HARDWARE/libHARDWARE_LIB.a(inv_mpu_dmp_motion_driver.c.obj)
                0x0800aea8                dmp_enable_gyro_cal
 .text.dmp_enable_lp_quat
                0x0800aeec       0x3c HARDWARE/libHARDWARE_LIB.a(inv_mpu_dmp_motion_driver.c.obj)
                0x0800aeec                dmp_enable_lp_quat
 .text.dmp_enable_6x_lp_quat
                0x0800af28       0x3c HARDWARE/libHARDWARE_LIB.a(inv_mpu_dmp_motion_driver.c.obj)
                0x0800af28                dmp_enable_6x_lp_quat
 .text.dmp_enable_feature
                0x0800af64      0x218 HARDWARE/libHARDWARE_LIB.a(inv_mpu_dmp_motion_driver.c.obj)
                0x0800af64                dmp_enable_feature
 .text.dmp_read_fifo
                0x0800b17c      0x1ec HARDWARE/libHARDWARE_LIB.a(inv_mpu_dmp_motion_driver.c.obj)
                0x0800b17c                dmp_read_fifo
 .text.OLED_SetCursor
                0x0800b368       0x2e HARDWARE/libHARDWARE_LIB.a(OLED.c.obj)
                0x0800b368                OLED_SetCursor
 *fill*         0x0800b396        0x2 
 .text.OLED_Update
                0x0800b398       0x2c HARDWARE/libHARDWARE_LIB.a(OLED.c.obj)
                0x0800b398                OLED_Update
 .text.OLED_Clear
                0x0800b3c4       0x2c HARDWARE/libHARDWARE_LIB.a(OLED.c.obj)
                0x0800b3c4                OLED_Clear
 .text.OLED_Init
                0x0800b3f0       0xf6 HARDWARE/libHARDWARE_LIB.a(OLED.c.obj)
                0x0800b3f0                OLED_Init
 *fill*         0x0800b4e6        0x2 
 .text.OLED_ClearArea
                0x0800b4e8       0x88 HARDWARE/libHARDWARE_LIB.a(OLED.c.obj)
                0x0800b4e8                OLED_ClearArea
 .text.OLED_ShowImage
                0x0800b570       0xdc HARDWARE/libHARDWARE_LIB.a(OLED.c.obj)
                0x0800b570                OLED_ShowImage
 .text.OLED_ShowChar
                0x0800b64c       0x48 HARDWARE/libHARDWARE_LIB.a(OLED.c.obj)
                0x0800b64c                OLED_ShowChar
 .text.OLED_ShowString
                0x0800b694      0x174 HARDWARE/libHARDWARE_LIB.a(OLED.c.obj)
                0x0800b694                OLED_ShowString
 .text.OLED_Printf
                0x0800b808       0x30 HARDWARE/libHARDWARE_LIB.a(OLED.c.obj)
                0x0800b808                OLED_Printf
 .text.OLED_DrawPoint
                0x0800b838       0x48 HARDWARE/libHARDWARE_LIB.a(OLED.c.obj)
                0x0800b838                OLED_DrawPoint
 .text.OLED_DrawRectangle
                0x0800b880       0x8a HARDWARE/libHARDWARE_LIB.a(OLED.c.obj)
                0x0800b880                OLED_DrawRectangle
 *fill*         0x0800b90a        0x2 
 .text.SDRAM_Send_Cmd
                0x0800b90c       0x38 HARDWARE/libHARDWARE_LIB.a(sdram.c.obj)
                0x0800b90c                SDRAM_Send_Cmd
 .text.SDRAM_Init
                0x0800b944      0x2b0 HARDWARE/libHARDWARE_LIB.a(sdram.c.obj)
                0x0800b944                SDRAM_Init
 .text.Project_BSP_ADC_Init
                0x0800bbf4       0x80 Project/libProject_LIB.a(adc.c.obj)
                0x0800bbf4                Project_BSP_ADC_Init
 *fill*         0x0800bc74        0x4 
 .text.Project_BSP_GetADC
                0x0800bc78       0xb4 Project/libProject_LIB.a(adc.c.obj)
                0x0800bc78                Project_BSP_GetADC
 .text.ADC_Init
                0x0800bd2c       0x54 Project/libProject_LIB.a(stm32f4xx_adc.c.obj)
                0x0800bd2c                ADC_Init
 .text.ADC_CommonInit
                0x0800bd80       0x2c Project/libProject_LIB.a(stm32f4xx_adc.c.obj)
                0x0800bd80                ADC_CommonInit
 .text.ADC_Cmd  0x0800bdac       0x16 Project/libProject_LIB.a(stm32f4xx_adc.c.obj)
                0x0800bdac                ADC_Cmd
 .text.ADC_RegularChannelConfig
                0x0800bdc2       0x98 Project/libProject_LIB.a(stm32f4xx_adc.c.obj)
                0x0800bdc2                ADC_RegularChannelConfig
 .text.ADC_SoftwareStartConv
                0x0800be5a        0xa Project/libProject_LIB.a(stm32f4xx_adc.c.obj)
                0x0800be5a                ADC_SoftwareStartConv
 .text.ADC_GetConversionValue
                0x0800be64        0x6 Project/libProject_LIB.a(stm32f4xx_adc.c.obj)
                0x0800be64                ADC_GetConversionValue
 *fill*         0x0800be6a        0x2 
 .text.Project_BSP_HW201_Init
                0x0800be6c       0x1c Project/libProject_LIB.a(hw201.c.obj)
                0x0800be6c                Project_BSP_HW201_Init
 .text.Project_BSP_HW201_Get
                0x0800be88       0x10 Project/libProject_LIB.a(hw201.c.obj)
                0x0800be88                Project_BSP_HW201_Get
 .text.Project_BSP_KEY_Init
                0x0800be98       0x50 Project/libProject_LIB.a(key.c.obj)
                0x0800be98                Project_BSP_KEY_Init
 .text.Project_BSP_GetKey
                0x0800bee8       0x3c Project/libProject_LIB.a(key.c.obj)
                0x0800bee8                Project_BSP_GetKey
 .text.Project_BSP_LED_ON
                0x0800bf24       0x24 Project/libProject_LIB.a(led.c.obj)
                0x0800bf24                Project_BSP_LED_ON
 .text.Project_BSP_LED_OFF
                0x0800bf48       0x24 Project/libProject_LIB.a(led.c.obj)
                0x0800bf48                Project_BSP_LED_OFF
 .text.Project_BSP_LED_Init
                0x0800bf6c       0x44 Project/libProject_LIB.a(led.c.obj)
                0x0800bf6c                Project_BSP_LED_Init
 .text.Project_BSP_Buzzer_Init
                0x0800bfb0       0x3c Project/libProject_LIB.a(led.c.obj)
                0x0800bfb0                Project_BSP_Buzzer_Init
 .text.Project_BSP_Buzzer_ON
                0x0800bfec       0x14 Project/libProject_LIB.a(led.c.obj)
                0x0800bfec                Project_BSP_Buzzer_ON
 .text.Project_BSP_Buzzer_OFF
                0x0800c000       0x14 Project/libProject_LIB.a(led.c.obj)
                0x0800c000                Project_BSP_Buzzer_OFF
 .text.Project_BSP_PWM_TIM2_Init
                0x0800c014       0x9c Project/libProject_LIB.a(pwm.c.obj)
                0x0800c014                Project_BSP_PWM_TIM2_Init
 .text.Project_BSP_Encoding_Init
                0x0800c0b0       0xdc Project/libProject_LIB.a(pwm.c.obj)
                0x0800c0b0                Project_BSP_Encoding_Init
 .text.TIM_TimeBaseInit
                0x0800c18c       0x7c Project/libProject_LIB.a(stm32f4xx_tim.c.obj)
                0x0800c18c                TIM_TimeBaseInit
 .text.TIM_Cmd  0x0800c208       0x1c Project/libProject_LIB.a(stm32f4xx_tim.c.obj)
                0x0800c208                TIM_Cmd
 .text.TIM_OC1Init
                0x0800c224       0x7c Project/libProject_LIB.a(stm32f4xx_tim.c.obj)
                0x0800c224                TIM_OC1Init
 .text.TIM_OC2Init
                0x0800c2a0       0x98 Project/libProject_LIB.a(stm32f4xx_tim.c.obj)
                0x0800c2a0                TIM_OC2Init
 .text.TIM_CtrlPWMOutputs
                0x0800c338       0x24 Project/libProject_LIB.a(stm32f4xx_tim.c.obj)
                0x0800c338                TIM_CtrlPWMOutputs
 .text.TIM_ITConfig
                0x0800c35c       0x18 Project/libProject_LIB.a(stm32f4xx_tim.c.obj)
                0x0800c35c                TIM_ITConfig
 .text.TIM_ClearFlag
                0x0800c374        0x8 Project/libProject_LIB.a(stm32f4xx_tim.c.obj)
                0x0800c374                TIM_ClearFlag
 .text.TIM_GetITStatus
                0x0800c37c       0x18 Project/libProject_LIB.a(stm32f4xx_tim.c.obj)
                0x0800c37c                TIM_GetITStatus
 .text.TIM_ClearITPendingBit
                0x0800c394        0x8 Project/libProject_LIB.a(stm32f4xx_tim.c.obj)
                0x0800c394                TIM_ClearITPendingBit
 .text.TIM_EncoderInterfaceConfig
                0x0800c39c       0x46 Project/libProject_LIB.a(stm32f4xx_tim.c.obj)
                0x0800c39c                TIM_EncoderInterfaceConfig
 *fill*         0x0800c3e2        0x2 
 .text.Project_BSP_TB6612_Init
                0x0800c3e4       0x54 Project/libProject_LIB.a(tb6612_port.c.obj)
                0x0800c3e4                Project_BSP_TB6612_Init
 .text.Project_LIB_ControlStrat
                0x0800c438       0x14 Project/libProject_LIB.a(ControlTask.c.obj)
                0x0800c438                Project_LIB_ControlStrat
 .text.Project_LIB_TIM3_Init
                0x0800c44c       0x58 Project/libProject_LIB.a(tools.c.obj)
                0x0800c44c                Project_LIB_TIM3_Init
 .text.Data_Save_from_Camer
                0x0800c4a4       0xa0 Project/libProject_LIB.a(tools.c.obj)
                0x0800c4a4                Data_Save_from_Camer
 .text.prvResetNextTaskUnblockTime
                0x0800c544       0x28 RTOS/libRTOS_LIB.a(tasks.c.obj)
 .text.prvDeleteTCB
                0x0800c56c       0x12 RTOS/libRTOS_LIB.a(tasks.c.obj)
 .text.prvInitialiseNewTask
                0x0800c57e       0x90 RTOS/libRTOS_LIB.a(tasks.c.obj)
 *fill*         0x0800c60e        0x2 
 .text.prvInitialiseTaskLists
                0x0800c610       0x68 RTOS/libRTOS_LIB.a(tasks.c.obj)
 .text.prvAddNewTaskToReadyList
                0x0800c678       0xc4 RTOS/libRTOS_LIB.a(tasks.c.obj)
 .text.prvCheckTasksWaitingTermination
                0x0800c73c       0x4c RTOS/libRTOS_LIB.a(tasks.c.obj)
 .text.prvIdleTask
                0x0800c788       0x28 RTOS/libRTOS_LIB.a(tasks.c.obj)
 .text.prvAddCurrentTaskToDelayedList
                0x0800c7b0       0xb0 RTOS/libRTOS_LIB.a(tasks.c.obj)
 .text.xTaskCreate
                0x0800c860       0x68 RTOS/libRTOS_LIB.a(tasks.c.obj)
                0x0800c860                xTaskCreate
 .text.vTaskStartScheduler
                0x0800c8c8       0x74 RTOS/libRTOS_LIB.a(tasks.c.obj)
                0x0800c8c8                vTaskStartScheduler
 .text.vTaskSuspendAll
                0x0800c93c       0x10 RTOS/libRTOS_LIB.a(tasks.c.obj)
                0x0800c93c                vTaskSuspendAll
 .text.xTaskGetTickCount
                0x0800c94c        0xc RTOS/libRTOS_LIB.a(tasks.c.obj)
                0x0800c94c                xTaskGetTickCount
 .text.uxTaskGetNumberOfTasks
                0x0800c958        0xc RTOS/libRTOS_LIB.a(tasks.c.obj)
                0x0800c958                uxTaskGetNumberOfTasks
 .text.xTaskIncrementTick
                0x0800c964      0x164 RTOS/libRTOS_LIB.a(tasks.c.obj)
                0x0800c964                xTaskIncrementTick
 .text.xTaskResumeAll
                0x0800cac8      0x138 RTOS/libRTOS_LIB.a(tasks.c.obj)
                0x0800cac8                xTaskResumeAll
 .text.xTaskDelayUntil
                0x0800cc00       0x74 RTOS/libRTOS_LIB.a(tasks.c.obj)
                0x0800cc00                xTaskDelayUntil
 .text.vTaskSwitchContext
                0x0800cc74       0x80 RTOS/libRTOS_LIB.a(tasks.c.obj)
                0x0800cc74                vTaskSwitchContext
 .text.vTaskPlaceOnEventList
                0x0800ccf4       0x1c RTOS/libRTOS_LIB.a(tasks.c.obj)
                0x0800ccf4                vTaskPlaceOnEventList
 .text.vTaskPlaceOnEventListRestricted
                0x0800cd10       0x3c RTOS/libRTOS_LIB.a(tasks.c.obj)
                0x0800cd10                vTaskPlaceOnEventListRestricted
 .text.xTaskRemoveFromEventList
                0x0800cd4c       0xdc RTOS/libRTOS_LIB.a(tasks.c.obj)
                0x0800cd4c                xTaskRemoveFromEventList
 .text.vTaskInternalSetTimeOutState
                0x0800ce28       0x18 RTOS/libRTOS_LIB.a(tasks.c.obj)
                0x0800ce28                vTaskInternalSetTimeOutState
 .text.xTaskCheckForTimeOut
                0x0800ce40       0x60 RTOS/libRTOS_LIB.a(tasks.c.obj)
                0x0800ce40                xTaskCheckForTimeOut
 .text.vTaskMissedYield
                0x0800cea0        0xc RTOS/libRTOS_LIB.a(tasks.c.obj)
                0x0800cea0                vTaskMissedYield
 .text.xTaskGetSchedulerState
                0x0800ceac       0x20 RTOS/libRTOS_LIB.a(tasks.c.obj)
                0x0800ceac                xTaskGetSchedulerState
 .text.xTaskPriorityDisinherit
                0x0800cecc       0x94 RTOS/libRTOS_LIB.a(tasks.c.obj)
                0x0800cecc                xTaskPriorityDisinherit
 .text.prvGetNextExpireTime
                0x0800cf60       0x20 RTOS/libRTOS_LIB.a(timers.c.obj)
 .text.prvInsertTimerInActiveList
                0x0800cf80       0x48 RTOS/libRTOS_LIB.a(timers.c.obj)
 .text.prvReloadTimer
                0x0800cfc8       0x28 RTOS/libRTOS_LIB.a(timers.c.obj)
 .text.prvProcessExpiredTimer
                0x0800cff0       0x40 RTOS/libRTOS_LIB.a(timers.c.obj)
 .text.prvSwitchTimerLists
                0x0800d030       0x30 RTOS/libRTOS_LIB.a(timers.c.obj)
 .text.prvSampleTimeNow
                0x0800d060       0x2c RTOS/libRTOS_LIB.a(timers.c.obj)
 .text.prvProcessTimerOrBlockTask
                0x0800d08c       0x74 RTOS/libRTOS_LIB.a(timers.c.obj)
 .text.prvProcessReceivedCommands
                0x0800d100       0xf0 RTOS/libRTOS_LIB.a(timers.c.obj)
 .text.prvTimerTask
                0x0800d1f0       0x16 RTOS/libRTOS_LIB.a(timers.c.obj)
 *fill*         0x0800d206        0x2 
 .text.prvCheckForValidListAndQueue
                0x0800d208       0x5c RTOS/libRTOS_LIB.a(timers.c.obj)
 .text.xTimerCreateTimerTask
                0x0800d264       0x40 RTOS/libRTOS_LIB.a(timers.c.obj)
                0x0800d264                xTimerCreateTimerTask
 .text.prvHeapInit
                0x0800d2a4       0x58 RTOS/libRTOS_LIB.a(heap_4.c.obj)
 .text.prvInsertBlockIntoFreeList
                0x0800d2fc       0x64 RTOS/libRTOS_LIB.a(heap_4.c.obj)
 .text.pvPortMalloc
                0x0800d360       0xc4 RTOS/libRTOS_LIB.a(heap_4.c.obj)
                0x0800d360                pvPortMalloc
 .text.vPortFree
                0x0800d424       0x54 RTOS/libRTOS_LIB.a(heap_4.c.obj)
                0x0800d424                vPortFree
 .text.prvTaskExitError
                0x0800d478       0x20 RTOS/libRTOS_LIB.a(port.c.obj)
 .text.prvPortStartFirstTask
                0x0800d498       0x28 RTOS/libRTOS_LIB.a(port.c.obj)
 .text.vPortEnableVFP
                0x0800d4c0       0x14 RTOS/libRTOS_LIB.a(port.c.obj)
 .text.pxPortInitialiseStack
                0x0800d4d4       0x2c RTOS/libRTOS_LIB.a(port.c.obj)
                0x0800d4d4                pxPortInitialiseStack
 .text.SVC_Handler
                0x0800d500       0x24 RTOS/libRTOS_LIB.a(port.c.obj)
                0x0800d500                SVC_Handler
 .text.vPortEnterCritical
                0x0800d524       0x2c RTOS/libRTOS_LIB.a(port.c.obj)
                0x0800d524                vPortEnterCritical
 .text.vPortExitCritical
                0x0800d550       0x14 RTOS/libRTOS_LIB.a(port.c.obj)
                0x0800d550                vPortExitCritical
 *fill*         0x0800d564        0xc 
 .text.PendSV_Handler
                0x0800d570       0x64 RTOS/libRTOS_LIB.a(port.c.obj)
                0x0800d570                PendSV_Handler
 .text.SysTick_Handler
                0x0800d5d4       0x2c RTOS/libRTOS_LIB.a(port.c.obj)
                0x0800d5d4                SysTick_Handler
 .text.vPortSetupTimerInterrupt
                0x0800d600       0x28 RTOS/libRTOS_LIB.a(port.c.obj)
                0x0800d600                vPortSetupTimerInterrupt
 .text.xPortStartScheduler
                0x0800d628       0xc4 RTOS/libRTOS_LIB.a(port.c.obj)
                0x0800d628                xPortStartScheduler
 .text.vListInitialise
                0x0800d6ec       0x16 RTOS/libRTOS_LIB.a(list.c.obj)
                0x0800d6ec                vListInitialise
 .text.vListInitialiseItem
                0x0800d702        0x6 RTOS/libRTOS_LIB.a(list.c.obj)
                0x0800d702                vListInitialiseItem
 .text.vListInsert
                0x0800d708       0x32 RTOS/libRTOS_LIB.a(list.c.obj)
                0x0800d708                vListInsert
 .text.uxListRemove
                0x0800d73a       0x26 RTOS/libRTOS_LIB.a(list.c.obj)
                0x0800d73a                uxListRemove
 .text.prvIsQueueEmpty
                0x0800d760       0x1a RTOS/libRTOS_LIB.a(queue.c.obj)
 .text.prvCopyDataToQueue
                0x0800d77a       0x76 RTOS/libRTOS_LIB.a(queue.c.obj)
 .text.prvCopyDataFromQueue
                0x0800d7f0       0x24 RTOS/libRTOS_LIB.a(queue.c.obj)
 .text.prvNotifyQueueSetContainer
                0x0800d814       0x5a RTOS/libRTOS_LIB.a(queue.c.obj)
 .text.prvUnlockQueue
                0x0800d86e       0x82 RTOS/libRTOS_LIB.a(queue.c.obj)
 .text.xQueueGenericReset
                0x0800d8f0       0x96 RTOS/libRTOS_LIB.a(queue.c.obj)
                0x0800d8f0                xQueueGenericReset
 .text.prvInitialiseNewQueue
                0x0800d986       0x20 RTOS/libRTOS_LIB.a(queue.c.obj)
 .text.xQueueGenericCreate
                0x0800d9a6       0x50 RTOS/libRTOS_LIB.a(queue.c.obj)
                0x0800d9a6                xQueueGenericCreate
 .text.xQueueReceive
                0x0800d9f6      0x114 RTOS/libRTOS_LIB.a(queue.c.obj)
                0x0800d9f6                xQueueReceive
 *fill*         0x0800db0a        0x2 
 .text.vQueueAddToRegistry
                0x0800db0c       0x50 RTOS/libRTOS_LIB.a(queue.c.obj)
                0x0800db0c                vQueueAddToRegistry
 .text.vQueueWaitForMessageRestricted
                0x0800db5c       0x52 RTOS/libRTOS_LIB.a(queue.c.obj)
                0x0800db5c                vQueueWaitForMessageRestricted
 .text.Task4_LEDPlay
                0x0800dbae       0x62 USER/libUSER_LIB.a(RTOSTask.c.obj)
                0x0800dbae                Task4_LEDPlay
 .text.Task3_Project_Display
                0x0800dc10      0x1b4 USER/libUSER_LIB.a(RTOSTask.c.obj)
                0x0800dc10                Task3_Project_Display
 .text.Task5_KeyScan
                0x0800ddc4       0x5c USER/libUSER_LIB.a(RTOSTask.c.obj)
                0x0800ddc4                Task5_KeyScan
 .text.delay_us
                0x0800de20       0x30 BSP/i2c/libi2c_LIB.a(softi2c.c.obj)
                0x0800de20                delay_us
 .text.Soft_IIC_Init
                0x0800de50       0x48 BSP/i2c/libi2c_LIB.a(softi2c.c.obj)
                0x0800de50                Soft_IIC_Init
 .text.Soft_IIC_Start
                0x0800de98       0x38 BSP/i2c/libi2c_LIB.a(softi2c.c.obj)
                0x0800de98                Soft_IIC_Start
 .text.Soft_IIC_Stop
                0x0800ded0       0x34 BSP/i2c/libi2c_LIB.a(softi2c.c.obj)
                0x0800ded0                Soft_IIC_Stop
 .text.Soft_IIC_Wait_Ack
                0x0800df04       0x54 BSP/i2c/libi2c_LIB.a(softi2c.c.obj)
                0x0800df04                Soft_IIC_Wait_Ack
 .text.Soft_IIC_Ack
                0x0800df58       0x3c BSP/i2c/libi2c_LIB.a(softi2c.c.obj)
                0x0800df58                Soft_IIC_Ack
 .text.Soft_IIC_NAck
                0x0800df94       0x3c BSP/i2c/libi2c_LIB.a(softi2c.c.obj)
                0x0800df94                Soft_IIC_NAck
 .text.Soft_IIC_Send_Byte
                0x0800dfd0       0x54 BSP/i2c/libi2c_LIB.a(softi2c.c.obj)
                0x0800dfd0                Soft_IIC_Send_Byte
 .text.Soft_IIC_Receive_Byte
                0x0800e024       0x60 BSP/i2c/libi2c_LIB.a(softi2c.c.obj)
                0x0800e024                Soft_IIC_Receive_Byte
 .text.Soft_IIC_Write_Byte
                0x0800e084       0x48 BSP/i2c/libi2c_LIB.a(softi2c.c.obj)
                0x0800e084                Soft_IIC_Write_Byte
 .text.Soft_IIC_Write_Len
                0x0800e0cc       0x5e BSP/i2c/libi2c_LIB.a(softi2c.c.obj)
                0x0800e0cc                Soft_IIC_Write_Len
 *fill*         0x0800e12a        0x2 
 .text.Soft_IIC_Read_Len
                0x0800e12c       0x70 BSP/i2c/libi2c_LIB.a(softi2c.c.obj)
                0x0800e12c                Soft_IIC_Read_Len
 .text.startup  0x0800e19c       0x14 /usr/lib/gcc/arm-none-eabi/13.2.1/../../../arm-none-eabi/lib/thumb/v7e-m+fp/hard/libg.a(libc_a-__call_atexit.o)
 *(.glue_7)
 .glue_7        0x0800e1b0        0x0 linker stubs
 *(.glue_7t)
 .glue_7t       0x0800e1b0        0x0 linker stubs
 *(.eh_frame)
 .eh_frame      0x0800e1b0        0x0 /usr/lib/gcc/arm-none-eabi/13.2.1/thumb/v7e-m+fp/hard/crtbegin.o
 *(.init)
 .init          0x0800e1b0        0x4 /usr/lib/gcc/arm-none-eabi/13.2.1/thumb/v7e-m+fp/hard/crti.o
                0x0800e1b0                _init
 .init          0x0800e1b4        0x8 /usr/lib/gcc/arm-none-eabi/13.2.1/thumb/v7e-m+fp/hard/crtn.o
 *(.fini)
 .fini          0x0800e1bc        0x4 /usr/lib/gcc/arm-none-eabi/13.2.1/thumb/v7e-m+fp/hard/crti.o
                0x0800e1bc                _fini
 .fini          0x0800e1c0        0x8 /usr/lib/gcc/arm-none-eabi/13.2.1/thumb/v7e-m+fp/hard/crtn.o
                0x0800e1c8                        . = ALIGN (0x4)
                0x0800e1c8                        _etext = .

.vfp11_veneer   0x0800e1c8        0x0
 .vfp11_veneer  0x0800e1c8        0x0 linker stubs

.v4_bx          0x0800e1c8        0x0
 .v4_bx         0x0800e1c8        0x0 linker stubs

.iplt           0x0800e1c8        0x0
 .iplt          0x0800e1c8        0x0 /usr/lib/gcc/arm-none-eabi/13.2.1/thumb/v7e-m+fp/hard/crtbegin.o

.rodata         0x0800e1c8     0x1bd4
                0x0800e1c8                        . = ALIGN (0x4)
 *(.rodata)
 .rodata        0x0800e1c8       0x20 /usr/lib/gcc/arm-none-eabi/13.2.1/../../../arm-none-eabi/lib/thumb/v7e-m+fp/hard/libg.a(libc_a-vfprintf.o)
 .rodata        0x0800e1e8       0x20 /usr/lib/gcc/arm-none-eabi/13.2.1/../../../arm-none-eabi/lib/thumb/v7e-m+fp/hard/libg.a(libc_a-svfprintf.o)
 .rodata        0x0800e208      0x128 /usr/lib/gcc/arm-none-eabi/13.2.1/../../../arm-none-eabi/lib/thumb/v7e-m+fp/hard/libg.a(libc_a-mprec.o)
                0x0800e218                __mprec_tens
                0x0800e2e0                __mprec_tinytens
                0x0800e308                __mprec_bigtens
 .rodata        0x0800e330      0x101 /usr/lib/gcc/arm-none-eabi/13.2.1/../../../arm-none-eabi/lib/thumb/v7e-m+fp/hard/libg.a(libc_a-ctype_.o)
                0x0800e330                _ctype_
 *fill*         0x0800e431        0x3 
 .rodata        0x0800e434       0x20 /usr/lib/gcc/arm-none-eabi/13.2.1/../../../arm-none-eabi/lib/thumb/v7e-m+fp/hard/libg.a(libc_a-vfiprintf.o)
 *fill*         0x0800e454        0x4 
 .rodata        0x0800e458       0x30 /usr/lib/gcc/arm-none-eabi/13.2.1/../../../arm-none-eabi/lib/thumb/v7e-m+fp/hard/libm.a(libm_a-e_atan2.o)
 .rodata        0x0800e488       0x40 /usr/lib/gcc/arm-none-eabi/13.2.1/../../../arm-none-eabi/lib/thumb/v7e-m+fp/hard/libm.a(libm_a-s_atan.o)
 .rodata        0x0800e4c8       0x10 /usr/lib/gcc/arm-none-eabi/13.2.1/../../../arm-none-eabi/lib/thumb/v7e-m+fp/hard/libm.a(libm_a-e_sqrt.o)
 *(.rodata*)
 .rodata.main.str1.4
                0x0800e4d8      0x346 CMakeFiles/SMC.elf.dir/USER/main.c.obj
                                 0x2e (size before relaxing)
 .rodata.BSP_Init.str1.4
                0x0800e81e       0xa7 CMakeFiles/SMC.elf.dir/USER/main.c.obj
 .rodata.mpu_init.str1.4
                0x0800e81e       0x91 HARDWARE/libHARDWARE_LIB.a(inv_mpu.c.obj)
 *fill*         0x0800e81e        0x2 
 .rodata.test   0x0800e820       0x28 HARDWARE/libHARDWARE_LIB.a(inv_mpu.c.obj)
                0x0800e820                test
 .rodata.hw     0x0800e848        0xc HARDWARE/libHARDWARE_LIB.a(inv_mpu.c.obj)
                0x0800e848                hw
 .rodata.reg    0x0800e854       0x1b HARDWARE/libHARDWARE_LIB.a(inv_mpu.c.obj)
                0x0800e854                reg
 .rodata.dmp_set_orientation.str1.4
                0x0800e86f       0x10 HARDWARE/libHARDWARE_LIB.a(inv_mpu_dmp_motion_driver.c.obj)
 .rodata.dmp_set_fifo_rate.str1.4
                0x0800e86f        0xd HARDWARE/libHARDWARE_LIB.a(inv_mpu_dmp_motion_driver.c.obj)
 .rodata.dmp_enable_gyro_cal.str1.4
                0x0800e86f       0x16 HARDWARE/libHARDWARE_LIB.a(inv_mpu_dmp_motion_driver.c.obj)
 *fill*         0x0800e86f        0x1 
 .rodata.dmp_memory
                0x0800e870      0xbf6 HARDWARE/libHARDWARE_LIB.a(inv_mpu_dmp_motion_driver.c.obj)
 *fill*         0x0800f466        0x2 
 .rodata.OLED_CF16x16
                0x0800f468      0x103 HARDWARE/libHARDWARE_LIB.a(OLED_Data.c.obj)
                0x0800f468                OLED_CF16x16
 *fill*         0x0800f56b        0x1 
 .rodata.OLED_F6x8
                0x0800f56c      0x23a HARDWARE/libHARDWARE_LIB.a(OLED_Data.c.obj)
                0x0800f56c                OLED_F6x8
 *fill*         0x0800f7a6        0x2 
 .rodata.OLED_F8x16
                0x0800f7a8      0x5f0 HARDWARE/libHARDWARE_LIB.a(OLED_Data.c.obj)
                0x0800f7a8                OLED_F8x16
 .rodata.Project_LIB_ControlStrat.str1.4
                0x0800fd98        0x4 Project/libProject_LIB.a(ControlTask.c.obj)
 .rodata.Data_Save_from_Camer.str1.4
                0x0800fd98       0x13 Project/libProject_LIB.a(tools.c.obj)
 .rodata.vTaskStartScheduler.str1.4
                0x0800fd98        0x5 RTOS/libRTOS_LIB.a(tasks.c.obj)
 .rodata.uxTopUsedPriority
                0x0800fd98        0x4 RTOS/libRTOS_LIB.a(tasks.c.obj)
                0x0800fd98                uxTopUsedPriority
 .rodata.prvCheckForValidListAndQueue.str1.4
                0x0800fd9c        0x5 RTOS/libRTOS_LIB.a(timers.c.obj)
 .rodata.xTimerCreateTimerTask.str1.4
                0x0800fd9c        0x8 RTOS/libRTOS_LIB.a(timers.c.obj)
 .rodata.Task3_Project_Display.str1.4
                0x0800fd9c       0x3a USER/libUSER_LIB.a(RTOSTask.c.obj)
 .rodata.Task5_KeyScan.str1.4
                0x0800fd9c       0x10 USER/libUSER_LIB.a(RTOSTask.c.obj)
 .rodata.Soft_IIC_Read_Len.str1.4
                0x0800fd9c       0x14 BSP/i2c/libi2c_LIB.a(softi2c.c.obj)
 .rodata.str1.4
                0x0800fd9c        0x2 /usr/lib/gcc/arm-none-eabi/13.2.1/../../../arm-none-eabi/lib/thumb/v7e-m+fp/hard/libg.a(libc_a-puts.o)
 .rodata.str1.4
                0x0800fd9c       0x42 /usr/lib/gcc/arm-none-eabi/13.2.1/../../../arm-none-eabi/lib/thumb/v7e-m+fp/hard/libg.a(libc_a-vfprintf.o)
 .rodata.str1.4
                0x0800fd9c       0x42 /usr/lib/gcc/arm-none-eabi/13.2.1/../../../arm-none-eabi/lib/thumb/v7e-m+fp/hard/libg.a(libc_a-svfprintf.o)
 .rodata.str1.4
                0x0800fd9c       0x54 /usr/lib/gcc/arm-none-eabi/13.2.1/../../../arm-none-eabi/lib/thumb/v7e-m+fp/hard/libg.a(libc_a-dtoa.o)
 .rodata.str1.4
                0x0800fd9c       0x43 /usr/lib/gcc/arm-none-eabi/13.2.1/../../../arm-none-eabi/lib/thumb/v7e-m+fp/hard/libg.a(libc_a-assert.o)
 .rodata.str1.4
                0x0800fd9c       0x41 /usr/lib/gcc/arm-none-eabi/13.2.1/../../../arm-none-eabi/lib/thumb/v7e-m+fp/hard/libg.a(libc_a-mprec.o)
 .rodata.str1.4
                0x0800fd9c       0x12 /usr/lib/gcc/arm-none-eabi/13.2.1/../../../arm-none-eabi/lib/thumb/v7e-m+fp/hard/libg.a(libc_a-locale.o)
 .rodata.str1.4
                0x0800fd9c       0x2f /usr/lib/gcc/arm-none-eabi/13.2.1/../../../arm-none-eabi/lib/thumb/v7e-m+fp/hard/libg.a(libc_a-vfiprintf.o)
 .rodata.str1.4
                0x0800fd9c        0x1 /usr/lib/gcc/arm-none-eabi/13.2.1/../../../arm-none-eabi/lib/thumb/v7e-m+fp/hard/libm.a(libm_a-w_asin.o)
                0x0800fdf0                        . = ALIGN (0x4)

.ARM.extab
 *(.ARM.extab* .gnu.linkonce.armextab.*)

.ARM            0x0800fd9c        0x8
                0x0800fd9c                        __exidx_start = .
 *(.ARM.exidx*)
 .ARM.exidx     0x0800fd9c        0x8 /usr/lib/gcc/arm-none-eabi/13.2.1/../../../arm-none-eabi/lib/thumb/v7e-m+fp/hard/libg.a(libc_a-strcmp.o)
 .ARM.exidx     0x0800fda4        0x0 /usr/lib/gcc/arm-none-eabi/13.2.1/../../../arm-none-eabi/lib/thumb/v7e-m+fp/hard/libg.a(libc_a-memcpy.o)
                                  0x8 (size before relaxing)
 .ARM.exidx     0x0800fda4        0x0 /usr/lib/gcc/arm-none-eabi/13.2.1/../../../arm-none-eabi/lib/thumb/v7e-m+fp/hard/libg.a(libc_a-strlen.o)
                                  0x8 (size before relaxing)
 .ARM.exidx     0x0800fda4        0x0 /usr/lib/gcc/arm-none-eabi/13.2.1/../../../arm-none-eabi/lib/thumb/v7e-m+fp/hard/libg.a(libc_a-memchr.o)
                                  0x8 (size before relaxing)
                0x0800fda4                        __exidx_end = .

.rel.dyn        0x0800fda4        0x0
 .rel.iplt      0x0800fda4        0x0 /usr/lib/gcc/arm-none-eabi/13.2.1/thumb/v7e-m+fp/hard/crtbegin.o

.preinit_array  0x0800fda4        0x0
                0x0800fda4                        PROVIDE (__preinit_array_start = .)
 *(.preinit_array*)
                0x0800fda4                        PROVIDE (__preinit_array_end = .)

.init_array     0x0800fda4        0x8
                0x0800fda4                        PROVIDE (__init_array_start = .)
 *(SORT_BY_NAME(.init_array.*))
 .init_array.00000
                0x0800fda4        0x4 /usr/lib/gcc/arm-none-eabi/13.2.1/../../../arm-none-eabi/lib/thumb/v7e-m+fp/hard/libg.a(libc_a-__call_atexit.o)
 *(.init_array*)
 .init_array    0x0800fda8        0x4 /usr/lib/gcc/arm-none-eabi/13.2.1/thumb/v7e-m+fp/hard/crtbegin.o
                0x0800fdac                        PROVIDE (__init_array_end = .)

.fini_array     0x0800fdac        0x4
                0x0800fdac                        PROVIDE (__fini_array_start = .)
 *(SORT_BY_NAME(.fini_array.*))
 *(.fini_array*)
 .fini_array    0x0800fdac        0x4 /usr/lib/gcc/arm-none-eabi/13.2.1/thumb/v7e-m+fp/hard/crtbegin.o
                0x0800fdb0                        PROVIDE (__fini_array_end = .)
                0x0800fdb0                        _sidata = LOADADDR (.data)

.data           0x20000000      0x6f8 load address 0x0800fdb0
                0x20000000                        . = ALIGN (0x4)
                0x20000000                        _sdata = .
 *(.data)
 .data          0x20000000      0x128 /usr/lib/gcc/arm-none-eabi/13.2.1/../../../arm-none-eabi/lib/thumb/v7e-m+fp/hard/libg.a(libc_a-impure.o)
                0x20000000                _impure_ptr
                0x20000008                _impure_data
 .data          0x20000128        0xc /usr/lib/gcc/arm-none-eabi/13.2.1/../../../arm-none-eabi/lib/thumb/v7e-m+fp/hard/libg.a(libc_a-findfp.o)
                0x20000128                __sglue
 *fill*         0x20000134        0x4 
 .data          0x20000138      0x410 /usr/lib/gcc/arm-none-eabi/13.2.1/../../../arm-none-eabi/lib/thumb/v7e-m+fp/hard/libg.a(libc_a-mallocr.o)
                0x20000138                __malloc_av_
                0x20000540                __malloc_sbrk_base
                0x20000544                __malloc_trim_threshold
 .data          0x20000548      0x16c /usr/lib/gcc/arm-none-eabi/13.2.1/../../../arm-none-eabi/lib/thumb/v7e-m+fp/hard/libg.a(libc_a-locale.o)
                0x20000548                __global_locale
 *(.data*)
 .data.SystemCoreClock
                0x200006b4        0x4 CORE/libCORE_LIB.a(system_stm32f4xx.c.obj)
                0x200006b4                SystemCoreClock
 .data.gyro_orientation
                0x200006b8        0x9 HARDWARE/libHARDWARE_LIB.a(inv_mpu.c.obj)
 *fill*         0x200006c1        0x3 
 .data.st       0x200006c4       0x2c HARDWARE/libHARDWARE_LIB.a(inv_mpu.c.obj)
 .data.MotorStrat_1
                0x200006f0        0x1 Project/libProject_LIB.a(tools.c.obj)
                0x200006f0                MotorStrat_1
 *fill*         0x200006f1        0x3 
 .data.uxCriticalNesting
                0x200006f4        0x4 RTOS/libRTOS_LIB.a(port.c.obj)
                0x200006f8                        . = ALIGN (0x4)
                0x200006f8                        _edata = .
                0x080104a8                        _siccmram = LOADADDR (.ccmram)

.tm_clone_table
                0x200006f8        0x0 load address 0x080104a8
 .tm_clone_table
                0x200006f8        0x0 /usr/lib/gcc/arm-none-eabi/13.2.1/thumb/v7e-m+fp/hard/crtbegin.o
 .tm_clone_table
                0x200006f8        0x0 /usr/lib/gcc/arm-none-eabi/13.2.1/thumb/v7e-m+fp/hard/crtend.o

.igot.plt       0x200006f8        0x0 load address 0x080104a8
 .igot.plt      0x200006f8        0x0 /usr/lib/gcc/arm-none-eabi/13.2.1/thumb/v7e-m+fp/hard/crtbegin.o

.ccmram         0x10000000        0x0 load address 0x080104a8
                0x10000000                        . = ALIGN (0x4)
                0x10000000                        _sccmram = .
 *(.ccmram)
 *(.ccmram*)
                0x10000000                        . = ALIGN (0x4)
                0x10000000                        _eccmram = .
                0x10000000                        . = ALIGN (0x4)

.bss            0x200006f8      0xeec
                0x200006f8                        _sbss = .
                0x200006f8                        __bss_start__ = _sbss
 *(.bss)
 .bss           0x200006f8       0x1c /usr/lib/gcc/arm-none-eabi/13.2.1/thumb/v7e-m+fp/hard/crtbegin.o
 .bss           0x20000714      0x13c /usr/lib/gcc/arm-none-eabi/13.2.1/../../../arm-none-eabi/lib/thumb/v7e-m+fp/hard/libg.a(libc_a-findfp.o)
                0x20000714                __sf
                0x2000084c                __stdio_exit_handler
 .bss           0x20000850       0x34 /usr/lib/gcc/arm-none-eabi/13.2.1/../../../arm-none-eabi/lib/thumb/v7e-m+fp/hard/libg.a(libc_a-mallocr.o)
                0x20000850                __malloc_top_pad
                0x20000854                __malloc_current_mallinfo
                0x2000087c                __malloc_max_sbrked_mem
                0x20000880                __malloc_max_total_mem
 .bss           0x20000884        0x4 /usr/lib/gcc/arm-none-eabi/13.2.1/../../../arm-none-eabi/lib/thumb/v7e-m+fp/hard/libg.a(libc_a-__call_atexit.o)
                0x20000884                __atexit
 .bss           0x20000888      0x190 /usr/lib/gcc/arm-none-eabi/13.2.1/../../../arm-none-eabi/lib/thumb/v7e-m+fp/hard/libg.a(libc_a-__atexit.o)
                0x20000888                __atexit0
 .bss           0x20000a18        0x4 /usr/lib/gcc/arm-none-eabi/13.2.1/../../../arm-none-eabi/lib/thumb/v7e-m+fp/hard/libg.a(libc_a-reent.o)
                0x20000a18                errno
 *(.bss*)
 .bss.Task5_KeyScan_Handle
                0x20000a1c        0x4 CMakeFiles/SMC.elf.dir/USER/main.c.obj
                0x20000a1c                Task5_KeyScan_Handle
 .bss.Task4_LEDPlayY_Handle
                0x20000a20        0x4 CMakeFiles/SMC.elf.dir/USER/main.c.obj
                0x20000a20                Task4_LEDPlayY_Handle
 .bss.Task4_LEDPlayR_Handle
                0x20000a24        0x4 CMakeFiles/SMC.elf.dir/USER/main.c.obj
                0x20000a24                Task4_LEDPlayR_Handle
 .bss.Task3_Project_Display_Voltage_Handle
                0x20000a28        0x4 CMakeFiles/SMC.elf.dir/USER/main.c.obj
                0x20000a28                Task3_Project_Display_Voltage_Handle
 .bss.Task3_Project_Display_OpenMV_Handle
                0x20000a2c        0x4 CMakeFiles/SMC.elf.dir/USER/main.c.obj
                0x20000a2c                Task3_Project_Display_OpenMV_Handle
 .bss.UART4_DataBuff
                0x20000a30       0xf0 CMakeFiles/SMC.elf.dir/USER/main.c.obj
                0x20000a30                UART4_DataBuff
 .bss.UART5_DataBuff
                0x20000b20       0xf0 CMakeFiles/SMC.elf.dir/USER/main.c.obj
                0x20000b20                UART5_DataBuff
 .bss.USART3_DataBuff
                0x20000c10       0xf0 CMakeFiles/SMC.elf.dir/USER/main.c.obj
                0x20000c10                USART3_DataBuff
 .bss.USART2_DataBuff
                0x20000d00       0xf0 CMakeFiles/SMC.elf.dir/USER/main.c.obj
                0x20000d00                USART2_DataBuff
 .bss.dmp       0x20000df0       0x10 HARDWARE/libHARDWARE_LIB.a(inv_mpu_dmp_motion_driver.c.obj)
 .bss.OLED_DisplayBuf
                0x20000e00      0x400 HARDWARE/libHARDWARE_LIB.a(OLED.c.obj)
                0x20000e00                OLED_DisplayBuf
 .bss.i.0       0x20001200        0x1 Project/libProject_LIB.a(tools.c.obj)
 .bss.Temp.1    0x20001201        0x1 Project/libProject_LIB.a(tools.c.obj)
 *fill*         0x20001202        0x2 
 .bss.CamerData
                0x20001204        0x4 Project/libProject_LIB.a(tools.c.obj)
                0x20001204                CamerData
 .bss.MotorStrat_3
                0x20001208        0x1 Project/libProject_LIB.a(tools.c.obj)
                0x20001208                MotorStrat_3
 .bss.MotorStrat_2
                0x20001209        0x1 Project/libProject_LIB.a(tools.c.obj)
                0x20001209                MotorStrat_2
 *fill*         0x2000120a        0x2 
 .bss.uxSchedulerSuspended
                0x2000120c        0x4 RTOS/libRTOS_LIB.a(tasks.c.obj)
 .bss.xIdleTaskHandle
                0x20001210        0x4 RTOS/libRTOS_LIB.a(tasks.c.obj)
 .bss.xNextTaskUnblockTime
                0x20001214        0x4 RTOS/libRTOS_LIB.a(tasks.c.obj)
 .bss.uxTaskNumber
                0x20001218        0x4 RTOS/libRTOS_LIB.a(tasks.c.obj)
 .bss.xNumOfOverflows
                0x2000121c        0x4 RTOS/libRTOS_LIB.a(tasks.c.obj)
 .bss.xYieldPending
                0x20001220        0x4 RTOS/libRTOS_LIB.a(tasks.c.obj)
 .bss.xPendedTicks
                0x20001224        0x4 RTOS/libRTOS_LIB.a(tasks.c.obj)
 .bss.xSchedulerRunning
                0x20001228        0x4 RTOS/libRTOS_LIB.a(tasks.c.obj)
 .bss.uxTopReadyPriority
                0x2000122c        0x4 RTOS/libRTOS_LIB.a(tasks.c.obj)
 .bss.xTickCount
                0x20001230        0x4 RTOS/libRTOS_LIB.a(tasks.c.obj)
 .bss.uxCurrentNumberOfTasks
                0x20001234        0x4 RTOS/libRTOS_LIB.a(tasks.c.obj)
 .bss.xSuspendedTaskList
                0x20001238       0x14 RTOS/libRTOS_LIB.a(tasks.c.obj)
 .bss.uxDeletedTasksWaitingCleanUp
                0x2000124c        0x4 RTOS/libRTOS_LIB.a(tasks.c.obj)
 .bss.xTasksWaitingTermination
                0x20001250       0x14 RTOS/libRTOS_LIB.a(tasks.c.obj)
 .bss.xPendingReadyList
                0x20001264       0x14 RTOS/libRTOS_LIB.a(tasks.c.obj)
 .bss.pxOverflowDelayedTaskList
                0x20001278        0x4 RTOS/libRTOS_LIB.a(tasks.c.obj)
 .bss.pxDelayedTaskList
                0x2000127c        0x4 RTOS/libRTOS_LIB.a(tasks.c.obj)
 .bss.xDelayedTaskList2
                0x20001280       0x14 RTOS/libRTOS_LIB.a(tasks.c.obj)
 .bss.xDelayedTaskList1
                0x20001294       0x14 RTOS/libRTOS_LIB.a(tasks.c.obj)
 .bss.pxReadyTasksLists
                0x200012a8      0x280 RTOS/libRTOS_LIB.a(tasks.c.obj)
 .bss.pxCurrentTCB
                0x20001528        0x4 RTOS/libRTOS_LIB.a(tasks.c.obj)
                0x20001528                pxCurrentTCB
 .bss.xLastTime.0
                0x2000152c        0x4 RTOS/libRTOS_LIB.a(timers.c.obj)
 .bss.xTimerTaskHandle
                0x20001530        0x4 RTOS/libRTOS_LIB.a(timers.c.obj)
 .bss.xTimerQueue
                0x20001534        0x4 RTOS/libRTOS_LIB.a(timers.c.obj)
 .bss.pxOverflowTimerList
                0x20001538        0x4 RTOS/libRTOS_LIB.a(timers.c.obj)
 .bss.pxCurrentTimerList
                0x2000153c        0x4 RTOS/libRTOS_LIB.a(timers.c.obj)
 .bss.xActiveTimerList2
                0x20001540       0x14 RTOS/libRTOS_LIB.a(timers.c.obj)
 .bss.xActiveTimerList1
                0x20001554       0x14 RTOS/libRTOS_LIB.a(timers.c.obj)
 .bss.xNumberOfSuccessfulFrees
                0x20001568        0x4 RTOS/libRTOS_LIB.a(heap_4.c.obj)
 .bss.xNumberOfSuccessfulAllocations
                0x2000156c        0x4 RTOS/libRTOS_LIB.a(heap_4.c.obj)
 .bss.xMinimumEverFreeBytesRemaining
                0x20001570        0x4 RTOS/libRTOS_LIB.a(heap_4.c.obj)
 .bss.xFreeBytesRemaining
                0x20001574        0x4 RTOS/libRTOS_LIB.a(heap_4.c.obj)
 .bss.pxEnd     0x20001578        0x4 RTOS/libRTOS_LIB.a(heap_4.c.obj)
 .bss.xStart    0x2000157c        0x8 RTOS/libRTOS_LIB.a(heap_4.c.obj)
 .bss.ulMaxPRIGROUPValue
                0x20001584        0x4 RTOS/libRTOS_LIB.a(port.c.obj)
 .bss.ucMaxSysCallPriority
                0x20001588        0x1 RTOS/libRTOS_LIB.a(port.c.obj)
 *fill*         0x20001589        0x3 
 .bss.xQueueRegistry
                0x2000158c       0x40 RTOS/libRTOS_LIB.a(queue.c.obj)
                0x2000158c                xQueueRegistry
 .bss.sec.0     0x200015cc        0x4 USER/libUSER_LIB.a(RTOSTask.c.obj)
 .bss.min.1     0x200015d0        0x4 USER/libUSER_LIB.a(RTOSTask.c.obj)
 .bss.hour.2    0x200015d4        0x4 USER/libUSER_LIB.a(RTOSTask.c.obj)
 .bss.yaw       0x200015d8        0x4 USER/libUSER_LIB.a(RTOSTask.c.obj)
                0x200015d8                yaw
 .bss.roll      0x200015dc        0x4 USER/libUSER_LIB.a(RTOSTask.c.obj)
                0x200015dc                roll
 .bss.pitch     0x200015e0        0x4 USER/libUSER_LIB.a(RTOSTask.c.obj)
                0x200015e0                pitch
 *(COMMON)
                0x200015e4                        . = ALIGN (0x4)
                0x200015e4                        _ebss = .
                0x200015e4                        __bss_end__ = _ebss

._user_heap_stack
                0x200015e4     0x1804
                0x200015e8                        . = ALIGN (0x8)
 *fill*         0x200015e4        0x4 
                [!provide]                        PROVIDE (end = .)
                [!provide]                        PROVIDE (_end = .)
                0x200019e8                        . = (. + _Min_Heap_Size)
 *fill*         0x200015e8      0x400 
                0x20002de8                        . = (. + _Min_Stack_Size)
 *fill*         0x200019e8     0x1400 
                0x20002de8                        . = ALIGN (0x8)

.ext_sdram      0xc0000000  0x1000000
                0xc0000000                        . = ALIGN (0x4)
 *(.ext_sram)
 .ext_sram      0xc0000000  0x1000000 USER/libUSER_LIB.a(RTOSTask.c.obj)
                0xc0000000                ucHeap
                0xc1000000                        . = ALIGN (0x4)

/DISCARD/
 libc.a(*)
 libm.a(*)
 libgcc.a(*)

.ARM.attributes
                0x00000000       0x30
 *(.ARM.attributes)
 .ARM.attributes
                0x00000000       0x22 /usr/lib/gcc/arm-none-eabi/13.2.1/thumb/v7e-m+fp/hard/crti.o
 .ARM.attributes
                0x00000022       0x34 /usr/lib/gcc/arm-none-eabi/13.2.1/thumb/v7e-m+fp/hard/crtbegin.o
 .ARM.attributes
                0x00000056       0x34 CMakeFiles/SMC.elf.dir/USER/main.c.obj
 .ARM.attributes
                0x0000008a       0x34 BSP/libBSP_LIB.a(sys.c.obj)
 .ARM.attributes
                0x000000be       0x34 BSP/libBSP_LIB.a(Serial.c.obj)
 .ARM.attributes
                0x000000f2       0x34 BSP/libBSP_LIB.a(usart.c.obj)
 .ARM.attributes
                0x00000126       0x34 BSP/libBSP_LIB.a(gpio.c.obj)
 .ARM.attributes
                0x0000015a       0x34 BSP/libBSP_LIB.a(stm32f4xx_gpio.c.obj)
 .ARM.attributes
                0x0000018e       0x34 BSP/libBSP_LIB.a(misc.c.obj)
 .ARM.attributes
                0x000001c2       0x34 BSP/libBSP_LIB.a(stm32f4xx_rcc.c.obj)
 .ARM.attributes
                0x000001f6       0x34 CORE/libCORE_LIB.a(stratup.c.obj)
 .ARM.attributes
                0x0000022a       0x34 CORE/libCORE_LIB.a(system_stm32f4xx.c.obj)
 .ARM.attributes
                0x0000025e       0x34 HARDWARE/libHARDWARE_LIB.a(inv_mpu.c.obj)
 .ARM.attributes
                0x00000292       0x34 HARDWARE/libHARDWARE_LIB.a(inv_mpu_dmp_motion_driver.c.obj)
 .ARM.attributes
                0x000002c6       0x34 HARDWARE/libHARDWARE_LIB.a(OLED.c.obj)
 .ARM.attributes
                0x000002fa       0x34 HARDWARE/libHARDWARE_LIB.a(OLED_Data.c.obj)
 .ARM.attributes
                0x0000032e       0x34 HARDWARE/libHARDWARE_LIB.a(sdram.c.obj)
 .ARM.attributes
                0x00000362       0x34 Project/libProject_LIB.a(adc.c.obj)
 .ARM.attributes
                0x00000396       0x34 Project/libProject_LIB.a(stm32f4xx_adc.c.obj)
 .ARM.attributes
                0x000003ca       0x34 Project/libProject_LIB.a(hw201.c.obj)
 .ARM.attributes
                0x000003fe       0x34 Project/libProject_LIB.a(key.c.obj)
 .ARM.attributes
                0x00000432       0x34 Project/libProject_LIB.a(led.c.obj)
 .ARM.attributes
                0x00000466       0x34 Project/libProject_LIB.a(pwm.c.obj)
 .ARM.attributes
                0x0000049a       0x34 Project/libProject_LIB.a(stm32f4xx_tim.c.obj)
 .ARM.attributes
                0x000004ce       0x34 Project/libProject_LIB.a(tb6612_port.c.obj)
 .ARM.attributes
                0x00000502       0x34 Project/libProject_LIB.a(ControlTask.c.obj)
 .ARM.attributes
                0x00000536       0x34 Project/libProject_LIB.a(tools.c.obj)
 .ARM.attributes
                0x0000056a       0x34 RTOS/libRTOS_LIB.a(tasks.c.obj)
 .ARM.attributes
                0x0000059e       0x34 RTOS/libRTOS_LIB.a(timers.c.obj)
 .ARM.attributes
                0x000005d2       0x34 RTOS/libRTOS_LIB.a(heap_4.c.obj)
 .ARM.attributes
                0x00000606       0x34 RTOS/libRTOS_LIB.a(port.c.obj)
 .ARM.attributes
                0x0000063a       0x34 RTOS/libRTOS_LIB.a(list.c.obj)
 .ARM.attributes
                0x0000066e       0x34 RTOS/libRTOS_LIB.a(queue.c.obj)
 .ARM.attributes
                0x000006a2       0x34 USER/libUSER_LIB.a(RTOSTask.c.obj)
 .ARM.attributes
                0x000006d6       0x34 BSP/i2c/libi2c_LIB.a(softi2c.c.obj)
 .ARM.attributes
                0x0000070a       0x22 /usr/lib/gcc/arm-none-eabi/13.2.1/thumb/v7e-m+fp/hard/libgcc.a(_arm_addsubdf3.o)
 .ARM.attributes
                0x0000072c       0x22 /usr/lib/gcc/arm-none-eabi/13.2.1/thumb/v7e-m+fp/hard/libgcc.a(_arm_muldivdf3.o)
 .ARM.attributes
                0x0000074e       0x22 /usr/lib/gcc/arm-none-eabi/13.2.1/thumb/v7e-m+fp/hard/libgcc.a(_arm_cmpdf2.o)
 .ARM.attributes
                0x00000770       0x22 /usr/lib/gcc/arm-none-eabi/13.2.1/thumb/v7e-m+fp/hard/libgcc.a(_arm_fixdfsi.o)
 .ARM.attributes
                0x00000792       0x22 /usr/lib/gcc/arm-none-eabi/13.2.1/thumb/v7e-m+fp/hard/libgcc.a(_arm_truncdfsf2.o)
 .ARM.attributes
                0x000007b4       0x34 /usr/lib/gcc/arm-none-eabi/13.2.1/../../../arm-none-eabi/lib/thumb/v7e-m+fp/hard/libg.a(libc_a-memset.o)
 .ARM.attributes
                0x000007e8       0x20 /usr/lib/gcc/arm-none-eabi/13.2.1/../../../arm-none-eabi/lib/thumb/v7e-m+fp/hard/libg.a(libc_a-strcmp.o)
 .ARM.attributes
                0x00000808       0x34 /usr/lib/gcc/arm-none-eabi/13.2.1/../../../arm-none-eabi/lib/thumb/v7e-m+fp/hard/libg.a(libc_a-vsprintf.o)
 .ARM.attributes
                0x0000083c       0x34 /usr/lib/gcc/arm-none-eabi/13.2.1/../../../arm-none-eabi/lib/thumb/v7e-m+fp/hard/libg.a(libc_a-impure.o)
 .ARM.attributes
                0x00000870       0x34 /usr/lib/gcc/arm-none-eabi/13.2.1/../../../arm-none-eabi/lib/thumb/v7e-m+fp/hard/libg.a(libc_a-memcmp.o)
 .ARM.attributes
                0x000008a4       0x20 /usr/lib/gcc/arm-none-eabi/13.2.1/../../../arm-none-eabi/lib/thumb/v7e-m+fp/hard/libg.a(libc_a-memcpy.o)
 .ARM.attributes
                0x000008c4       0x34 /usr/lib/gcc/arm-none-eabi/13.2.1/../../../arm-none-eabi/lib/thumb/v7e-m+fp/hard/libg.a(libc_a-init.o)
 .ARM.attributes
                0x000008f8       0x34 /usr/lib/gcc/arm-none-eabi/13.2.1/../../../arm-none-eabi/lib/thumb/v7e-m+fp/hard/libg.a(libc_a-findfp.o)
 .ARM.attributes
                0x0000092c       0x34 /usr/lib/gcc/arm-none-eabi/13.2.1/../../../arm-none-eabi/lib/thumb/v7e-m+fp/hard/libg.a(libc_a-puts.o)
 .ARM.attributes
                0x00000960       0x34 /usr/lib/gcc/arm-none-eabi/13.2.1/../../../arm-none-eabi/lib/thumb/v7e-m+fp/hard/libg.a(libc_a-fvwrite.o)
 .ARM.attributes
                0x00000994       0x34 /usr/lib/gcc/arm-none-eabi/13.2.1/../../../arm-none-eabi/lib/thumb/v7e-m+fp/hard/libg.a(libc_a-atexit.o)
 .ARM.attributes
                0x000009c8       0x34 /usr/lib/gcc/arm-none-eabi/13.2.1/../../../arm-none-eabi/lib/thumb/v7e-m+fp/hard/libg.a(libc_a-printf.o)
 .ARM.attributes
                0x000009fc       0x34 /usr/lib/gcc/arm-none-eabi/13.2.1/../../../arm-none-eabi/lib/thumb/v7e-m+fp/hard/libg.a(libc_a-fini.o)
 .ARM.attributes
                0x00000a30       0x1c /usr/lib/gcc/arm-none-eabi/13.2.1/../../../arm-none-eabi/lib/thumb/v7e-m+fp/hard/libg.a(libc_a-strlen.o)
 .ARM.attributes
                0x00000a4c       0x34 /usr/lib/gcc/arm-none-eabi/13.2.1/../../../arm-none-eabi/lib/thumb/v7e-m+fp/hard/libg.a(libc_a-fwalk.o)
 .ARM.attributes
                0x00000a80       0x34 /usr/lib/gcc/arm-none-eabi/13.2.1/../../../arm-none-eabi/lib/thumb/v7e-m+fp/hard/libg.a(libc_a-vfprintf.o)
 .ARM.attributes
                0x00000ab4       0x1c /usr/lib/gcc/arm-none-eabi/13.2.1/../../../arm-none-eabi/lib/thumb/v7e-m+fp/hard/libg.a(libc_a-memchr.o)
 .ARM.attributes
                0x00000ad0       0x34 /usr/lib/gcc/arm-none-eabi/13.2.1/../../../arm-none-eabi/lib/thumb/v7e-m+fp/hard/libg.a(libc_a-svfprintf.o)
 .ARM.attributes
                0x00000b04       0x34 /usr/lib/gcc/arm-none-eabi/13.2.1/../../../arm-none-eabi/lib/thumb/v7e-m+fp/hard/libg.a(libc_a-fflush.o)
 .ARM.attributes
                0x00000b38       0x34 /usr/lib/gcc/arm-none-eabi/13.2.1/../../../arm-none-eabi/lib/thumb/v7e-m+fp/hard/libg.a(libc_a-memmove.o)
 .ARM.attributes
                0x00000b6c       0x34 /usr/lib/gcc/arm-none-eabi/13.2.1/../../../arm-none-eabi/lib/thumb/v7e-m+fp/hard/libg.a(libc_a-mallocr.o)
 .ARM.attributes
                0x00000ba0       0x34 /usr/lib/gcc/arm-none-eabi/13.2.1/../../../arm-none-eabi/lib/thumb/v7e-m+fp/hard/libg.a(libc_a-dtoa.o)
 .ARM.attributes
                0x00000bd4       0x34 /usr/lib/gcc/arm-none-eabi/13.2.1/../../../arm-none-eabi/lib/thumb/v7e-m+fp/hard/libg.a(libc_a-wsetup.o)
 .ARM.attributes
                0x00000c08       0x34 /usr/lib/gcc/arm-none-eabi/13.2.1/../../../arm-none-eabi/lib/thumb/v7e-m+fp/hard/libg.a(libc_a-freer.o)
 .ARM.attributes
                0x00000c3c       0x34 /usr/lib/gcc/arm-none-eabi/13.2.1/../../../arm-none-eabi/lib/thumb/v7e-m+fp/hard/libg.a(libc_a-fclose.o)
 .ARM.attributes
                0x00000c70       0x34 /usr/lib/gcc/arm-none-eabi/13.2.1/../../../arm-none-eabi/lib/thumb/v7e-m+fp/hard/libg.a(libc_a-__call_atexit.o)
 .ARM.attributes
                0x00000ca4       0x34 /usr/lib/gcc/arm-none-eabi/13.2.1/../../../arm-none-eabi/lib/thumb/v7e-m+fp/hard/libg.a(libc_a-sysconf.o)
 .ARM.attributes
                0x00000cd8       0x34 /usr/lib/gcc/arm-none-eabi/13.2.1/../../../arm-none-eabi/lib/thumb/v7e-m+fp/hard/libg.a(libc_a-stdio.o)
 .ARM.attributes
                0x00000d0c       0x34 /usr/lib/gcc/arm-none-eabi/13.2.1/../../../arm-none-eabi/lib/thumb/v7e-m+fp/hard/libg.a(libc_a-__atexit.o)
 .ARM.attributes
                0x00000d40       0x34 /usr/lib/gcc/arm-none-eabi/13.2.1/../../../arm-none-eabi/lib/thumb/v7e-m+fp/hard/libg.a(libc_a-reallocr.o)
 .ARM.attributes
                0x00000d74       0x34 /usr/lib/gcc/arm-none-eabi/13.2.1/../../../arm-none-eabi/lib/thumb/v7e-m+fp/hard/libg.a(libc_a-mlock.o)
 .ARM.attributes
                0x00000da8       0x34 /usr/lib/gcc/arm-none-eabi/13.2.1/../../../arm-none-eabi/lib/thumb/v7e-m+fp/hard/libg.a(libc_a-ssprint_r.o)
 .ARM.attributes
                0x00000ddc       0x34 /usr/lib/gcc/arm-none-eabi/13.2.1/../../../arm-none-eabi/lib/thumb/v7e-m+fp/hard/libg.a(libc_a-sbrkr.o)
 .ARM.attributes
                0x00000e10       0x34 /usr/lib/gcc/arm-none-eabi/13.2.1/../../../arm-none-eabi/lib/thumb/v7e-m+fp/hard/libg.a(libc_a-sprint_r.o)
 .ARM.attributes
                0x00000e44       0x34 /usr/lib/gcc/arm-none-eabi/13.2.1/../../../arm-none-eabi/lib/thumb/v7e-m+fp/hard/libg.a(libc_a-assert.o)
 .ARM.attributes
                0x00000e78       0x34 /usr/lib/gcc/arm-none-eabi/13.2.1/../../../arm-none-eabi/lib/thumb/v7e-m+fp/hard/libg.a(libc_a-mprec.o)
 .ARM.attributes
                0x00000eac       0x34 /usr/lib/gcc/arm-none-eabi/13.2.1/../../../arm-none-eabi/lib/thumb/v7e-m+fp/hard/libg.a(libc_a-localeconv.o)
 .ARM.attributes
                0x00000ee0       0x34 /usr/lib/gcc/arm-none-eabi/13.2.1/../../../arm-none-eabi/lib/thumb/v7e-m+fp/hard/libg.a(libc_a-makebuf.o)
 .ARM.attributes
                0x00000f14       0x34 /usr/lib/gcc/arm-none-eabi/13.2.1/../../../arm-none-eabi/lib/thumb/v7e-m+fp/hard/libg.a(libc_a-locale.o)
 .ARM.attributes
                0x00000f48       0x34 /usr/lib/gcc/arm-none-eabi/13.2.1/../../../arm-none-eabi/lib/thumb/v7e-m+fp/hard/libg.a(libc_a-mbtowc_r.o)
 .ARM.attributes
                0x00000f7c       0x34 /usr/lib/gcc/arm-none-eabi/13.2.1/../../../arm-none-eabi/lib/thumb/v7e-m+fp/hard/libg.a(libc_a-errno.o)
 .ARM.attributes
                0x00000fb0       0x34 /usr/lib/gcc/arm-none-eabi/13.2.1/../../../arm-none-eabi/lib/thumb/v7e-m+fp/hard/libg.a(libc_a-abort.o)
 .ARM.attributes
                0x00000fe4       0x34 /usr/lib/gcc/arm-none-eabi/13.2.1/../../../arm-none-eabi/lib/thumb/v7e-m+fp/hard/libg.a(libc_a-callocr.o)
 .ARM.attributes
                0x00001018       0x34 /usr/lib/gcc/arm-none-eabi/13.2.1/../../../arm-none-eabi/lib/thumb/v7e-m+fp/hard/libg.a(libc_a-ssputs_r.o)
 .ARM.attributes
                0x0000104c       0x34 /usr/lib/gcc/arm-none-eabi/13.2.1/../../../arm-none-eabi/lib/thumb/v7e-m+fp/hard/libg.a(libc_a-fiprintf.o)
 .ARM.attributes
                0x00001080       0x34 /usr/lib/gcc/arm-none-eabi/13.2.1/../../../arm-none-eabi/lib/thumb/v7e-m+fp/hard/libg.a(libc_a-wctomb_r.o)
 .ARM.attributes
                0x000010b4       0x34 /usr/lib/gcc/arm-none-eabi/13.2.1/../../../arm-none-eabi/lib/thumb/v7e-m+fp/hard/libg.a(libc_a-reent.o)
 .ARM.attributes
                0x000010e8       0x34 /usr/lib/gcc/arm-none-eabi/13.2.1/../../../arm-none-eabi/lib/thumb/v7e-m+fp/hard/libg.a(libc_a-ctype_.o)
 .ARM.attributes
                0x0000111c       0x34 /usr/lib/gcc/arm-none-eabi/13.2.1/../../../arm-none-eabi/lib/thumb/v7e-m+fp/hard/libg.a(libc_a-signal.o)
 .ARM.attributes
                0x00001150       0x34 /usr/lib/gcc/arm-none-eabi/13.2.1/../../../arm-none-eabi/lib/thumb/v7e-m+fp/hard/libg.a(libc_a-vfiprintf.o)
 .ARM.attributes
                0x00001184       0x22 /usr/lib/gcc/arm-none-eabi/13.2.1/thumb/v7e-m+fp/hard/libgcc.a(_arm_unorddf2.o)
 .ARM.attributes
                0x000011a6       0x34 /usr/lib/gcc/arm-none-eabi/13.2.1/thumb/v7e-m+fp/hard/crtend.o
 .ARM.attributes
                0x000011da       0x22 /usr/lib/gcc/arm-none-eabi/13.2.1/thumb/v7e-m+fp/hard/crtn.o
OUTPUT(SMC.elf elf32-littlearm)
LOAD linker stubs
LOAD /usr/lib/gcc/arm-none-eabi/13.2.1/../../../arm-none-eabi/lib/thumb/v7e-m+fp/hard/libc.a
LOAD /usr/lib/gcc/arm-none-eabi/13.2.1/../../../arm-none-eabi/lib/thumb/v7e-m+fp/hard/libm.a
LOAD /usr/lib/gcc/arm-none-eabi/13.2.1/thumb/v7e-m+fp/hard/libgcc.a

.comment        0x00000000       0x26
 .comment       0x00000000       0x26 /usr/lib/gcc/arm-none-eabi/13.2.1/thumb/v7e-m+fp/hard/crtbegin.o
                                 0x27 (size before relaxing)
 .comment       0x00000026       0x27 CMakeFiles/SMC.elf.dir/USER/main.c.obj
 .comment       0x00000026       0x27 BSP/libBSP_LIB.a(sys.c.obj)
 .comment       0x00000026       0x27 BSP/libBSP_LIB.a(Serial.c.obj)
 .comment       0x00000026       0x27 BSP/libBSP_LIB.a(usart.c.obj)
 .comment       0x00000026       0x27 BSP/libBSP_LIB.a(gpio.c.obj)
 .comment       0x00000026       0x27 BSP/libBSP_LIB.a(stm32f4xx_gpio.c.obj)
 .comment       0x00000026       0x27 BSP/libBSP_LIB.a(misc.c.obj)
 .comment       0x00000026       0x27 BSP/libBSP_LIB.a(stm32f4xx_rcc.c.obj)
 .comment       0x00000026       0x27 CORE/libCORE_LIB.a(stratup.c.obj)
 .comment       0x00000026       0x27 CORE/libCORE_LIB.a(system_stm32f4xx.c.obj)
 .comment       0x00000026       0x27 HARDWARE/libHARDWARE_LIB.a(inv_mpu.c.obj)
 .comment       0x00000026       0x27 HARDWARE/libHARDWARE_LIB.a(inv_mpu_dmp_motion_driver.c.obj)
 .comment       0x00000026       0x27 HARDWARE/libHARDWARE_LIB.a(OLED.c.obj)
 .comment       0x00000026       0x27 HARDWARE/libHARDWARE_LIB.a(OLED_Data.c.obj)
 .comment       0x00000026       0x27 HARDWARE/libHARDWARE_LIB.a(sdram.c.obj)
 .comment       0x00000026       0x27 Project/libProject_LIB.a(adc.c.obj)
 .comment       0x00000026       0x27 Project/libProject_LIB.a(stm32f4xx_adc.c.obj)
 .comment       0x00000026       0x27 Project/libProject_LIB.a(hw201.c.obj)
 .comment       0x00000026       0x27 Project/libProject_LIB.a(key.c.obj)
 .comment       0x00000026       0x27 Project/libProject_LIB.a(led.c.obj)
 .comment       0x00000026       0x27 Project/libProject_LIB.a(pwm.c.obj)
 .comment       0x00000026       0x27 Project/libProject_LIB.a(stm32f4xx_tim.c.obj)
 .comment       0x00000026       0x27 Project/libProject_LIB.a(tb6612_port.c.obj)
 .comment       0x00000026       0x27 Project/libProject_LIB.a(ControlTask.c.obj)
 .comment       0x00000026       0x27 Project/libProject_LIB.a(tools.c.obj)
 .comment       0x00000026       0x27 RTOS/libRTOS_LIB.a(tasks.c.obj)
 .comment       0x00000026       0x27 RTOS/libRTOS_LIB.a(timers.c.obj)
 .comment       0x00000026       0x27 RTOS/libRTOS_LIB.a(heap_4.c.obj)
 .comment       0x00000026       0x27 RTOS/libRTOS_LIB.a(port.c.obj)
 .comment       0x00000026       0x27 RTOS/libRTOS_LIB.a(list.c.obj)
 .comment       0x00000026       0x27 RTOS/libRTOS_LIB.a(queue.c.obj)
 .comment       0x00000026       0x27 USER/libUSER_LIB.a(RTOSTask.c.obj)
 .comment       0x00000026       0x27 BSP/i2c/libi2c_LIB.a(softi2c.c.obj)
 .comment       0x00000026       0x27 /usr/lib/gcc/arm-none-eabi/13.2.1/../../../arm-none-eabi/lib/thumb/v7e-m+fp/hard/libg.a(libc_a-memset.o)
 .comment       0x00000026       0x27 /usr/lib/gcc/arm-none-eabi/13.2.1/../../../arm-none-eabi/lib/thumb/v7e-m+fp/hard/libg.a(libc_a-vsprintf.o)
 .comment       0x00000026       0x27 /usr/lib/gcc/arm-none-eabi/13.2.1/../../../arm-none-eabi/lib/thumb/v7e-m+fp/hard/libg.a(libc_a-impure.o)
 .comment       0x00000026       0x27 /usr/lib/gcc/arm-none-eabi/13.2.1/../../../arm-none-eabi/lib/thumb/v7e-m+fp/hard/libg.a(libc_a-memcmp.o)
 .comment       0x00000026       0x27 /usr/lib/gcc/arm-none-eabi/13.2.1/../../../arm-none-eabi/lib/thumb/v7e-m+fp/hard/libg.a(libc_a-init.o)
 .comment       0x00000026       0x27 /usr/lib/gcc/arm-none-eabi/13.2.1/../../../arm-none-eabi/lib/thumb/v7e-m+fp/hard/libg.a(libc_a-findfp.o)
 .comment       0x00000026       0x27 /usr/lib/gcc/arm-none-eabi/13.2.1/../../../arm-none-eabi/lib/thumb/v7e-m+fp/hard/libg.a(libc_a-puts.o)
 .comment       0x00000026       0x27 /usr/lib/gcc/arm-none-eabi/13.2.1/../../../arm-none-eabi/lib/thumb/v7e-m+fp/hard/libg.a(libc_a-fvwrite.o)
 .comment       0x00000026       0x27 /usr/lib/gcc/arm-none-eabi/13.2.1/../../../arm-none-eabi/lib/thumb/v7e-m+fp/hard/libg.a(libc_a-atexit.o)
 .comment       0x00000026       0x27 /usr/lib/gcc/arm-none-eabi/13.2.1/../../../arm-none-eabi/lib/thumb/v7e-m+fp/hard/libg.a(libc_a-printf.o)
 .comment       0x00000026       0x27 /usr/lib/gcc/arm-none-eabi/13.2.1/../../../arm-none-eabi/lib/thumb/v7e-m+fp/hard/libg.a(libc_a-fini.o)
 .comment       0x00000026       0x27 /usr/lib/gcc/arm-none-eabi/13.2.1/../../../arm-none-eabi/lib/thumb/v7e-m+fp/hard/libg.a(libc_a-fwalk.o)
 .comment       0x00000026       0x27 /usr/lib/gcc/arm-none-eabi/13.2.1/../../../arm-none-eabi/lib/thumb/v7e-m+fp/hard/libg.a(libc_a-vfprintf.o)
 .comment       0x00000026       0x27 /usr/lib/gcc/arm-none-eabi/13.2.1/../../../arm-none-eabi/lib/thumb/v7e-m+fp/hard/libg.a(libc_a-svfprintf.o)
 .comment       0x00000026       0x27 /usr/lib/gcc/arm-none-eabi/13.2.1/../../../arm-none-eabi/lib/thumb/v7e-m+fp/hard/libg.a(libc_a-fflush.o)
 .comment       0x00000026       0x27 /usr/lib/gcc/arm-none-eabi/13.2.1/../../../arm-none-eabi/lib/thumb/v7e-m+fp/hard/libg.a(libc_a-memmove.o)
 .comment       0x00000026       0x27 /usr/lib/gcc/arm-none-eabi/13.2.1/../../../arm-none-eabi/lib/thumb/v7e-m+fp/hard/libg.a(libc_a-mallocr.o)
 .comment       0x00000026       0x27 /usr/lib/gcc/arm-none-eabi/13.2.1/../../../arm-none-eabi/lib/thumb/v7e-m+fp/hard/libg.a(libc_a-dtoa.o)
 .comment       0x00000026       0x27 /usr/lib/gcc/arm-none-eabi/13.2.1/../../../arm-none-eabi/lib/thumb/v7e-m+fp/hard/libg.a(libc_a-wsetup.o)
 .comment       0x00000026       0x27 /usr/lib/gcc/arm-none-eabi/13.2.1/../../../arm-none-eabi/lib/thumb/v7e-m+fp/hard/libg.a(libc_a-freer.o)
 .comment       0x00000026       0x27 /usr/lib/gcc/arm-none-eabi/13.2.1/../../../arm-none-eabi/lib/thumb/v7e-m+fp/hard/libg.a(libc_a-fclose.o)
 .comment       0x00000026       0x27 /usr/lib/gcc/arm-none-eabi/13.2.1/../../../arm-none-eabi/lib/thumb/v7e-m+fp/hard/libg.a(libc_a-__call_atexit.o)
 .comment       0x00000026       0x27 /usr/lib/gcc/arm-none-eabi/13.2.1/../../../arm-none-eabi/lib/thumb/v7e-m+fp/hard/libg.a(libc_a-sysconf.o)
 .comment       0x00000026       0x27 /usr/lib/gcc/arm-none-eabi/13.2.1/../../../arm-none-eabi/lib/thumb/v7e-m+fp/hard/libg.a(libc_a-stdio.o)
 .comment       0x00000026       0x27 /usr/lib/gcc/arm-none-eabi/13.2.1/../../../arm-none-eabi/lib/thumb/v7e-m+fp/hard/libg.a(libc_a-__atexit.o)
 .comment       0x00000026       0x27 /usr/lib/gcc/arm-none-eabi/13.2.1/../../../arm-none-eabi/lib/thumb/v7e-m+fp/hard/libg.a(libc_a-reallocr.o)
 .comment       0x00000026       0x27 /usr/lib/gcc/arm-none-eabi/13.2.1/../../../arm-none-eabi/lib/thumb/v7e-m+fp/hard/libg.a(libc_a-mlock.o)
 .comment       0x00000026       0x27 /usr/lib/gcc/arm-none-eabi/13.2.1/../../../arm-none-eabi/lib/thumb/v7e-m+fp/hard/libg.a(libc_a-ssprint_r.o)
 .comment       0x00000026       0x27 /usr/lib/gcc/arm-none-eabi/13.2.1/../../../arm-none-eabi/lib/thumb/v7e-m+fp/hard/libg.a(libc_a-sbrkr.o)
 .comment       0x00000026       0x27 /usr/lib/gcc/arm-none-eabi/13.2.1/../../../arm-none-eabi/lib/thumb/v7e-m+fp/hard/libg.a(libc_a-sprint_r.o)
 .comment       0x00000026       0x27 /usr/lib/gcc/arm-none-eabi/13.2.1/../../../arm-none-eabi/lib/thumb/v7e-m+fp/hard/libg.a(libc_a-assert.o)
 .comment       0x00000026       0x27 /usr/lib/gcc/arm-none-eabi/13.2.1/../../../arm-none-eabi/lib/thumb/v7e-m+fp/hard/libg.a(libc_a-mprec.o)
 .comment       0x00000026       0x27 /usr/lib/gcc/arm-none-eabi/13.2.1/../../../arm-none-eabi/lib/thumb/v7e-m+fp/hard/libg.a(libc_a-localeconv.o)
 .comment       0x00000026       0x27 /usr/lib/gcc/arm-none-eabi/13.2.1/../../../arm-none-eabi/lib/thumb/v7e-m+fp/hard/libg.a(libc_a-makebuf.o)
 .comment       0x00000026       0x27 /usr/lib/gcc/arm-none-eabi/13.2.1/../../../arm-none-eabi/lib/thumb/v7e-m+fp/hard/libg.a(libc_a-locale.o)
 .comment       0x00000026       0x27 /usr/lib/gcc/arm-none-eabi/13.2.1/../../../arm-none-eabi/lib/thumb/v7e-m+fp/hard/libg.a(libc_a-mbtowc_r.o)
 .comment       0x00000026       0x27 /usr/lib/gcc/arm-none-eabi/13.2.1/../../../arm-none-eabi/lib/thumb/v7e-m+fp/hard/libg.a(libc_a-errno.o)
 .comment       0x00000026       0x27 /usr/lib/gcc/arm-none-eabi/13.2.1/../../../arm-none-eabi/lib/thumb/v7e-m+fp/hard/libg.a(libc_a-abort.o)
 .comment       0x00000026       0x27 /usr/lib/gcc/arm-none-eabi/13.2.1/../../../arm-none-eabi/lib/thumb/v7e-m+fp/hard/libg.a(libc_a-callocr.o)
 .comment       0x00000026       0x27 /usr/lib/gcc/arm-none-eabi/13.2.1/../../../arm-none-eabi/lib/thumb/v7e-m+fp/hard/libg.a(libc_a-ssputs_r.o)
 .comment       0x00000026       0x27 /usr/lib/gcc/arm-none-eabi/13.2.1/../../../arm-none-eabi/lib/thumb/v7e-m+fp/hard/libg.a(libc_a-fiprintf.o)
 .comment       0x00000026       0x27 /usr/lib/gcc/arm-none-eabi/13.2.1/../../../arm-none-eabi/lib/thumb/v7e-m+fp/hard/libg.a(libc_a-wctomb_r.o)
 .comment       0x00000026       0x27 /usr/lib/gcc/arm-none-eabi/13.2.1/../../../arm-none-eabi/lib/thumb/v7e-m+fp/hard/libg.a(libc_a-reent.o)
 .comment       0x00000026       0x27 /usr/lib/gcc/arm-none-eabi/13.2.1/../../../arm-none-eabi/lib/thumb/v7e-m+fp/hard/libg.a(libc_a-ctype_.o)
 .comment       0x00000026       0x27 /usr/lib/gcc/arm-none-eabi/13.2.1/../../../arm-none-eabi/lib/thumb/v7e-m+fp/hard/libg.a(libc_a-signal.o)
 .comment       0x00000026       0x27 /usr/lib/gcc/arm-none-eabi/13.2.1/../../../arm-none-eabi/lib/thumb/v7e-m+fp/hard/libg.a(libc_a-vfiprintf.o)
 .comment       0x00000026       0x27 /usr/lib/gcc/arm-none-eabi/13.2.1/thumb/v7e-m+fp/hard/crtend.o

.debug_info     0x00000000    0x338ce
 .debug_info    0x00000000      0xb12 CMakeFiles/SMC.elf.dir/USER/main.c.obj
 .debug_info    0x00000b12      0x59d BSP/libBSP_LIB.a(sys.c.obj)
 .debug_info    0x000010af      0x51a BSP/libBSP_LIB.a(Serial.c.obj)
 .debug_info    0x000015c9      0xbf3 BSP/libBSP_LIB.a(usart.c.obj)
 .debug_info    0x000021bc      0x31d BSP/libBSP_LIB.a(gpio.c.obj)
 .debug_info    0x000024d9      0x83f BSP/libBSP_LIB.a(stm32f4xx_gpio.c.obj)
 .debug_info    0x00002d18      0x4f9 BSP/libBSP_LIB.a(misc.c.obj)
 .debug_info    0x00003211      0xe67 BSP/libBSP_LIB.a(stm32f4xx_rcc.c.obj)
 .debug_info    0x00004078      0x1a4 CORE/libCORE_LIB.a(stratup.c.obj)
 .debug_info    0x0000421c      0x5dd CORE/libCORE_LIB.a(system_stm32f4xx.c.obj)
 .debug_info    0x000047f9     0x29cb HARDWARE/libHARDWARE_LIB.a(inv_mpu.c.obj)
 .debug_info    0x000071c4     0x12bc HARDWARE/libHARDWARE_LIB.a(inv_mpu_dmp_motion_driver.c.obj)
 .debug_info    0x00008480     0x259b HARDWARE/libHARDWARE_LIB.a(OLED.c.obj)
 .debug_info    0x0000aa1b      0x1ec HARDWARE/libHARDWARE_LIB.a(OLED_Data.c.obj)
 .debug_info    0x0000ac07      0xb8c HARDWARE/libHARDWARE_LIB.a(sdram.c.obj)
 .debug_info    0x0000b793      0x6fe Project/libProject_LIB.a(adc.c.obj)
 .debug_info    0x0000be91      0xcd4 Project/libProject_LIB.a(stm32f4xx_adc.c.obj)
 .debug_info    0x0000cb65      0x30c Project/libProject_LIB.a(hw201.c.obj)
 .debug_info    0x0000ce71      0x3b3 Project/libProject_LIB.a(key.c.obj)
 .debug_info    0x0000d224      0x4c8 Project/libProject_LIB.a(led.c.obj)
 .debug_info    0x0000d6ec      0x855 Project/libProject_LIB.a(pwm.c.obj)
 .debug_info    0x0000df41     0x2289 Project/libProject_LIB.a(stm32f4xx_tim.c.obj)
 .debug_info    0x000101ca      0x45c Project/libProject_LIB.a(tb6612_port.c.obj)
 .debug_info    0x00010626      0x2d7 Project/libProject_LIB.a(ControlTask.c.obj)
 .debug_info    0x000108fd      0x795 Project/libProject_LIB.a(tools.c.obj)
 .debug_info    0x00011092     0x26c6 RTOS/libRTOS_LIB.a(tasks.c.obj)
 .debug_info    0x00013758     0x135b RTOS/libRTOS_LIB.a(timers.c.obj)
 .debug_info    0x00014ab3      0x5a5 RTOS/libRTOS_LIB.a(heap_4.c.obj)
 .debug_info    0x00015058      0x41b RTOS/libRTOS_LIB.a(port.c.obj)
 .debug_info    0x00015473      0x2b3 RTOS/libRTOS_LIB.a(list.c.obj)
 .debug_info    0x00015726     0x2181 RTOS/libRTOS_LIB.a(queue.c.obj)
 .debug_info    0x000178a7      0xab1 USER/libUSER_LIB.a(RTOSTask.c.obj)
 .debug_info    0x00018358      0x907 BSP/i2c/libi2c_LIB.a(softi2c.c.obj)
 .debug_info    0x00018c5f       0xd3 /usr/lib/gcc/arm-none-eabi/13.2.1/thumb/v7e-m+fp/hard/libgcc.a(_arm_addsubdf3.o)
 .debug_info    0x00018d32       0x57 /usr/lib/gcc/arm-none-eabi/13.2.1/thumb/v7e-m+fp/hard/libgcc.a(_arm_muldivdf3.o)
 .debug_info    0x00018d89       0xdf /usr/lib/gcc/arm-none-eabi/13.2.1/thumb/v7e-m+fp/hard/libgcc.a(_arm_cmpdf2.o)
 .debug_info    0x00018e68       0x3c /usr/lib/gcc/arm-none-eabi/13.2.1/thumb/v7e-m+fp/hard/libgcc.a(_arm_fixdfsi.o)
 .debug_info    0x00018ea4       0x3f /usr/lib/gcc/arm-none-eabi/13.2.1/thumb/v7e-m+fp/hard/libgcc.a(_arm_truncdfsf2.o)
 .debug_info    0x00018ee3      0x135 /usr/lib/gcc/arm-none-eabi/13.2.1/../../../arm-none-eabi/lib/thumb/v7e-m+fp/hard/libg.a(libc_a-memset.o)
 .debug_info    0x00019018       0x33 /usr/lib/gcc/arm-none-eabi/13.2.1/../../../arm-none-eabi/lib/thumb/v7e-m+fp/hard/libg.a(libc_a-strcmp.o)
 .debug_info    0x0001904b      0x8fb /usr/lib/gcc/arm-none-eabi/13.2.1/../../../arm-none-eabi/lib/thumb/v7e-m+fp/hard/libg.a(libc_a-vsprintf.o)
 .debug_info    0x00019946      0x729 /usr/lib/gcc/arm-none-eabi/13.2.1/../../../arm-none-eabi/lib/thumb/v7e-m+fp/hard/libg.a(libc_a-impure.o)
 .debug_info    0x0001a06f      0x12b /usr/lib/gcc/arm-none-eabi/13.2.1/../../../arm-none-eabi/lib/thumb/v7e-m+fp/hard/libg.a(libc_a-memcmp.o)
 .debug_info    0x0001a19a       0x33 /usr/lib/gcc/arm-none-eabi/13.2.1/../../../arm-none-eabi/lib/thumb/v7e-m+fp/hard/libg.a(libc_a-memcpy.o)
 .debug_info    0x0001a1cd      0x10b /usr/lib/gcc/arm-none-eabi/13.2.1/../../../arm-none-eabi/lib/thumb/v7e-m+fp/hard/libg.a(libc_a-init.o)
 .debug_info    0x0001a2d8      0xea8 /usr/lib/gcc/arm-none-eabi/13.2.1/../../../arm-none-eabi/lib/thumb/v7e-m+fp/hard/libg.a(libc_a-findfp.o)
 .debug_info    0x0001b180      0x8fe /usr/lib/gcc/arm-none-eabi/13.2.1/../../../arm-none-eabi/lib/thumb/v7e-m+fp/hard/libg.a(libc_a-puts.o)
 .debug_info    0x0001ba7e      0xb0f /usr/lib/gcc/arm-none-eabi/13.2.1/../../../arm-none-eabi/lib/thumb/v7e-m+fp/hard/libg.a(libc_a-fvwrite.o)
 .debug_info    0x0001c58d      0x11e /usr/lib/gcc/arm-none-eabi/13.2.1/../../../arm-none-eabi/lib/thumb/v7e-m+fp/hard/libg.a(libc_a-atexit.o)
 .debug_info    0x0001c6ab      0x855 /usr/lib/gcc/arm-none-eabi/13.2.1/../../../arm-none-eabi/lib/thumb/v7e-m+fp/hard/libg.a(libc_a-printf.o)
 .debug_info    0x0001cf00       0xf7 /usr/lib/gcc/arm-none-eabi/13.2.1/../../../arm-none-eabi/lib/thumb/v7e-m+fp/hard/libg.a(libc_a-fini.o)
 .debug_info    0x0001cff7       0x33 /usr/lib/gcc/arm-none-eabi/13.2.1/../../../arm-none-eabi/lib/thumb/v7e-m+fp/hard/libg.a(libc_a-strlen.o)
 .debug_info    0x0001d02a      0x7e4 /usr/lib/gcc/arm-none-eabi/13.2.1/../../../arm-none-eabi/lib/thumb/v7e-m+fp/hard/libg.a(libc_a-fwalk.o)
 .debug_info    0x0001d80e     0x1994 /usr/lib/gcc/arm-none-eabi/13.2.1/../../../arm-none-eabi/lib/thumb/v7e-m+fp/hard/libg.a(libc_a-vfprintf.o)
 .debug_info    0x0001f1a2       0x25 /usr/lib/gcc/arm-none-eabi/13.2.1/../../../arm-none-eabi/lib/thumb/v7e-m+fp/hard/libg.a(libc_a-memchr.o)
 .debug_info    0x0001f1c7     0x1788 /usr/lib/gcc/arm-none-eabi/13.2.1/../../../arm-none-eabi/lib/thumb/v7e-m+fp/hard/libg.a(libc_a-svfprintf.o)
 .debug_info    0x0002094f      0xa4f /usr/lib/gcc/arm-none-eabi/13.2.1/../../../arm-none-eabi/lib/thumb/v7e-m+fp/hard/libg.a(libc_a-fflush.o)
 .debug_info    0x0002139e      0x148 /usr/lib/gcc/arm-none-eabi/13.2.1/../../../arm-none-eabi/lib/thumb/v7e-m+fp/hard/libg.a(libc_a-memmove.o)
 .debug_info    0x000214e6      0xcd9 /usr/lib/gcc/arm-none-eabi/13.2.1/../../../arm-none-eabi/lib/thumb/v7e-m+fp/hard/libg.a(libc_a-mallocr.o)
 .debug_info    0x000221bf     0x18e7 /usr/lib/gcc/arm-none-eabi/13.2.1/../../../arm-none-eabi/lib/thumb/v7e-m+fp/hard/libg.a(libc_a-dtoa.o)
 .debug_info    0x00023aa6      0x7cf /usr/lib/gcc/arm-none-eabi/13.2.1/../../../arm-none-eabi/lib/thumb/v7e-m+fp/hard/libg.a(libc_a-wsetup.o)
 .debug_info    0x00024275      0xb55 /usr/lib/gcc/arm-none-eabi/13.2.1/../../../arm-none-eabi/lib/thumb/v7e-m+fp/hard/libg.a(libc_a-freer.o)
 .debug_info    0x00024dca      0x8e6 /usr/lib/gcc/arm-none-eabi/13.2.1/../../../arm-none-eabi/lib/thumb/v7e-m+fp/hard/libg.a(libc_a-fclose.o)
 .debug_info    0x000256b0      0x284 /usr/lib/gcc/arm-none-eabi/13.2.1/../../../arm-none-eabi/lib/thumb/v7e-m+fp/hard/libg.a(libc_a-__call_atexit.o)
 .debug_info    0x00025934       0xc1 /usr/lib/gcc/arm-none-eabi/13.2.1/../../../arm-none-eabi/lib/thumb/v7e-m+fp/hard/libg.a(libc_a-sysconf.o)
 .debug_info    0x000259f5      0xa9e /usr/lib/gcc/arm-none-eabi/13.2.1/../../../arm-none-eabi/lib/thumb/v7e-m+fp/hard/libg.a(libc_a-stdio.o)
 .debug_info    0x00026493      0x1fd /usr/lib/gcc/arm-none-eabi/13.2.1/../../../arm-none-eabi/lib/thumb/v7e-m+fp/hard/libg.a(libc_a-__atexit.o)
 .debug_info    0x00026690      0xbc9 /usr/lib/gcc/arm-none-eabi/13.2.1/../../../arm-none-eabi/lib/thumb/v7e-m+fp/hard/libg.a(libc_a-reallocr.o)
 .debug_info    0x00027259      0x73a /usr/lib/gcc/arm-none-eabi/13.2.1/../../../arm-none-eabi/lib/thumb/v7e-m+fp/hard/libg.a(libc_a-mlock.o)
 .debug_info    0x00027993      0x840 /usr/lib/gcc/arm-none-eabi/13.2.1/../../../arm-none-eabi/lib/thumb/v7e-m+fp/hard/libg.a(libc_a-ssprint_r.o)
 .debug_info    0x000281d3      0x796 /usr/lib/gcc/arm-none-eabi/13.2.1/../../../arm-none-eabi/lib/thumb/v7e-m+fp/hard/libg.a(libc_a-sbrkr.o)
 .debug_info    0x00028969      0x7ff /usr/lib/gcc/arm-none-eabi/13.2.1/../../../arm-none-eabi/lib/thumb/v7e-m+fp/hard/libg.a(libc_a-sprint_r.o)
 .debug_info    0x00029168      0x843 /usr/lib/gcc/arm-none-eabi/13.2.1/../../../arm-none-eabi/lib/thumb/v7e-m+fp/hard/libg.a(libc_a-assert.o)
 .debug_info    0x000299ab     0x1e42 /usr/lib/gcc/arm-none-eabi/13.2.1/../../../arm-none-eabi/lib/thumb/v7e-m+fp/hard/libg.a(libc_a-mprec.o)
 .debug_info    0x0002b7ed      0xa2c /usr/lib/gcc/arm-none-eabi/13.2.1/../../../arm-none-eabi/lib/thumb/v7e-m+fp/hard/libg.a(libc_a-localeconv.o)
 .debug_info    0x0002c219      0xc08 /usr/lib/gcc/arm-none-eabi/13.2.1/../../../arm-none-eabi/lib/thumb/v7e-m+fp/hard/libg.a(libc_a-makebuf.o)
 .debug_info    0x0002ce21      0xbd7 /usr/lib/gcc/arm-none-eabi/13.2.1/../../../arm-none-eabi/lib/thumb/v7e-m+fp/hard/libg.a(libc_a-locale.o)
 .debug_info    0x0002d9f8      0xace /usr/lib/gcc/arm-none-eabi/13.2.1/../../../arm-none-eabi/lib/thumb/v7e-m+fp/hard/libg.a(libc_a-mbtowc_r.o)
 .debug_info    0x0002e4c6      0x70f /usr/lib/gcc/arm-none-eabi/13.2.1/../../../arm-none-eabi/lib/thumb/v7e-m+fp/hard/libg.a(libc_a-errno.o)
 .debug_info    0x0002ebd5       0xd8 /usr/lib/gcc/arm-none-eabi/13.2.1/../../../arm-none-eabi/lib/thumb/v7e-m+fp/hard/libg.a(libc_a-abort.o)
 .debug_info    0x0002ecad      0x8d9 /usr/lib/gcc/arm-none-eabi/13.2.1/../../../arm-none-eabi/lib/thumb/v7e-m+fp/hard/libg.a(libc_a-callocr.o)
 .debug_info    0x0002f586      0x8c2 /usr/lib/gcc/arm-none-eabi/13.2.1/../../../arm-none-eabi/lib/thumb/v7e-m+fp/hard/libg.a(libc_a-ssputs_r.o)
 .debug_info    0x0002fe48      0x872 /usr/lib/gcc/arm-none-eabi/13.2.1/../../../arm-none-eabi/lib/thumb/v7e-m+fp/hard/libg.a(libc_a-fiprintf.o)
 .debug_info    0x000306ba      0xa8a /usr/lib/gcc/arm-none-eabi/13.2.1/../../../arm-none-eabi/lib/thumb/v7e-m+fp/hard/libg.a(libc_a-wctomb_r.o)
 .debug_info    0x00031144      0x831 /usr/lib/gcc/arm-none-eabi/13.2.1/../../../arm-none-eabi/lib/thumb/v7e-m+fp/hard/libg.a(libc_a-reent.o)
 .debug_info    0x00031975       0xb9 /usr/lib/gcc/arm-none-eabi/13.2.1/../../../arm-none-eabi/lib/thumb/v7e-m+fp/hard/libg.a(libc_a-ctype_.o)
 .debug_info    0x00031a2e      0xc57 /usr/lib/gcc/arm-none-eabi/13.2.1/../../../arm-none-eabi/lib/thumb/v7e-m+fp/hard/libg.a(libc_a-signal.o)
 .debug_info    0x00032685     0x120d /usr/lib/gcc/arm-none-eabi/13.2.1/../../../arm-none-eabi/lib/thumb/v7e-m+fp/hard/libg.a(libc_a-vfiprintf.o)
 .debug_info    0x00033892       0x3c /usr/lib/gcc/arm-none-eabi/13.2.1/thumb/v7e-m+fp/hard/libgcc.a(_arm_unorddf2.o)

.debug_abbrev   0x00000000     0xa865
 .debug_abbrev  0x00000000      0x275 CMakeFiles/SMC.elf.dir/USER/main.c.obj
 .debug_abbrev  0x00000275      0x1b2 BSP/libBSP_LIB.a(sys.c.obj)
 .debug_abbrev  0x00000427      0x22c BSP/libBSP_LIB.a(Serial.c.obj)
 .debug_abbrev  0x00000653      0x1f0 BSP/libBSP_LIB.a(usart.c.obj)
 .debug_abbrev  0x00000843      0x17a BSP/libBSP_LIB.a(gpio.c.obj)
 .debug_abbrev  0x000009bd      0x225 BSP/libBSP_LIB.a(stm32f4xx_gpio.c.obj)
 .debug_abbrev  0x00000be2      0x196 BSP/libBSP_LIB.a(misc.c.obj)
 .debug_abbrev  0x00000d78      0x20a BSP/libBSP_LIB.a(stm32f4xx_rcc.c.obj)
 .debug_abbrev  0x00000f82      0x133 CORE/libCORE_LIB.a(stratup.c.obj)
 .debug_abbrev  0x000010b5      0x18d CORE/libCORE_LIB.a(system_stm32f4xx.c.obj)
 .debug_abbrev  0x00001242      0x2ec HARDWARE/libHARDWARE_LIB.a(inv_mpu.c.obj)
 .debug_abbrev  0x0000152e      0x21e HARDWARE/libHARDWARE_LIB.a(inv_mpu_dmp_motion_driver.c.obj)
 .debug_abbrev  0x0000174c      0x269 HARDWARE/libHARDWARE_LIB.a(OLED.c.obj)
 .debug_abbrev  0x000019b5       0xad HARDWARE/libHARDWARE_LIB.a(OLED_Data.c.obj)
 .debug_abbrev  0x00001a62      0x167 HARDWARE/libHARDWARE_LIB.a(sdram.c.obj)
 .debug_abbrev  0x00001bc9      0x1b2 Project/libProject_LIB.a(adc.c.obj)
 .debug_abbrev  0x00001d7b      0x1ff Project/libProject_LIB.a(stm32f4xx_adc.c.obj)
 .debug_abbrev  0x00001f7a       0xcc Project/libProject_LIB.a(hw201.c.obj)
 .debug_abbrev  0x00002046      0x172 Project/libProject_LIB.a(key.c.obj)
 .debug_abbrev  0x000021b8      0x18f Project/libProject_LIB.a(led.c.obj)
 .debug_abbrev  0x00002347      0x175 Project/libProject_LIB.a(pwm.c.obj)
 .debug_abbrev  0x000024bc      0x1f2 Project/libProject_LIB.a(stm32f4xx_tim.c.obj)
 .debug_abbrev  0x000026ae      0x147 Project/libProject_LIB.a(tb6612_port.c.obj)
 .debug_abbrev  0x000027f5      0x1a4 Project/libProject_LIB.a(ControlTask.c.obj)
 .debug_abbrev  0x00002999      0x257 Project/libProject_LIB.a(tools.c.obj)
 .debug_abbrev  0x00002bf0      0x3b9 RTOS/libRTOS_LIB.a(tasks.c.obj)
 .debug_abbrev  0x00002fa9      0x2ce RTOS/libRTOS_LIB.a(timers.c.obj)
 .debug_abbrev  0x00003277      0x272 RTOS/libRTOS_LIB.a(heap_4.c.obj)
 .debug_abbrev  0x000034e9      0x29d RTOS/libRTOS_LIB.a(port.c.obj)
 .debug_abbrev  0x00003786      0x10a RTOS/libRTOS_LIB.a(list.c.obj)
 .debug_abbrev  0x00003890      0x33a RTOS/libRTOS_LIB.a(queue.c.obj)
 .debug_abbrev  0x00003bca      0x2b5 USER/libUSER_LIB.a(RTOSTask.c.obj)
 .debug_abbrev  0x00003e7f      0x238 BSP/i2c/libi2c_LIB.a(softi2c.c.obj)
 .debug_abbrev  0x000040b7       0x28 /usr/lib/gcc/arm-none-eabi/13.2.1/thumb/v7e-m+fp/hard/libgcc.a(_arm_addsubdf3.o)
 .debug_abbrev  0x000040df       0x28 /usr/lib/gcc/arm-none-eabi/13.2.1/thumb/v7e-m+fp/hard/libgcc.a(_arm_muldivdf3.o)
 .debug_abbrev  0x00004107       0x28 /usr/lib/gcc/arm-none-eabi/13.2.1/thumb/v7e-m+fp/hard/libgcc.a(_arm_cmpdf2.o)
 .debug_abbrev  0x0000412f       0x28 /usr/lib/gcc/arm-none-eabi/13.2.1/thumb/v7e-m+fp/hard/libgcc.a(_arm_fixdfsi.o)
 .debug_abbrev  0x00004157       0x28 /usr/lib/gcc/arm-none-eabi/13.2.1/thumb/v7e-m+fp/hard/libgcc.a(_arm_truncdfsf2.o)
 .debug_abbrev  0x0000417f       0xb7 /usr/lib/gcc/arm-none-eabi/13.2.1/../../../arm-none-eabi/lib/thumb/v7e-m+fp/hard/libg.a(libc_a-memset.o)
 .debug_abbrev  0x00004236       0x28 /usr/lib/gcc/arm-none-eabi/13.2.1/../../../arm-none-eabi/lib/thumb/v7e-m+fp/hard/libg.a(libc_a-strcmp.o)
 .debug_abbrev  0x0000425e      0x286 /usr/lib/gcc/arm-none-eabi/13.2.1/../../../arm-none-eabi/lib/thumb/v7e-m+fp/hard/libg.a(libc_a-vsprintf.o)
 .debug_abbrev  0x000044e4      0x185 /usr/lib/gcc/arm-none-eabi/13.2.1/../../../arm-none-eabi/lib/thumb/v7e-m+fp/hard/libg.a(libc_a-impure.o)
 .debug_abbrev  0x00004669       0x90 /usr/lib/gcc/arm-none-eabi/13.2.1/../../../arm-none-eabi/lib/thumb/v7e-m+fp/hard/libg.a(libc_a-memcmp.o)
 .debug_abbrev  0x000046f9       0x28 /usr/lib/gcc/arm-none-eabi/13.2.1/../../../arm-none-eabi/lib/thumb/v7e-m+fp/hard/libg.a(libc_a-memcpy.o)
 .debug_abbrev  0x00004721       0xc9 /usr/lib/gcc/arm-none-eabi/13.2.1/../../../arm-none-eabi/lib/thumb/v7e-m+fp/hard/libg.a(libc_a-init.o)
 .debug_abbrev  0x000047ea      0x446 /usr/lib/gcc/arm-none-eabi/13.2.1/../../../arm-none-eabi/lib/thumb/v7e-m+fp/hard/libg.a(libc_a-findfp.o)
 .debug_abbrev  0x00004c30      0x274 /usr/lib/gcc/arm-none-eabi/13.2.1/../../../arm-none-eabi/lib/thumb/v7e-m+fp/hard/libg.a(libc_a-puts.o)
 .debug_abbrev  0x00004ea4      0x257 /usr/lib/gcc/arm-none-eabi/13.2.1/../../../arm-none-eabi/lib/thumb/v7e-m+fp/hard/libg.a(libc_a-fvwrite.o)
 .debug_abbrev  0x000050fb       0xc1 /usr/lib/gcc/arm-none-eabi/13.2.1/../../../arm-none-eabi/lib/thumb/v7e-m+fp/hard/libg.a(libc_a-atexit.o)
 .debug_abbrev  0x000051bc      0x256 /usr/lib/gcc/arm-none-eabi/13.2.1/../../../arm-none-eabi/lib/thumb/v7e-m+fp/hard/libg.a(libc_a-printf.o)
 .debug_abbrev  0x00005412       0xcc /usr/lib/gcc/arm-none-eabi/13.2.1/../../../arm-none-eabi/lib/thumb/v7e-m+fp/hard/libg.a(libc_a-fini.o)
 .debug_abbrev  0x000054de       0x28 /usr/lib/gcc/arm-none-eabi/13.2.1/../../../arm-none-eabi/lib/thumb/v7e-m+fp/hard/libg.a(libc_a-strlen.o)
 .debug_abbrev  0x00005506      0x1d9 /usr/lib/gcc/arm-none-eabi/13.2.1/../../../arm-none-eabi/lib/thumb/v7e-m+fp/hard/libg.a(libc_a-fwalk.o)
 .debug_abbrev  0x000056df      0x4e2 /usr/lib/gcc/arm-none-eabi/13.2.1/../../../arm-none-eabi/lib/thumb/v7e-m+fp/hard/libg.a(libc_a-vfprintf.o)
 .debug_abbrev  0x00005bc1       0x14 /usr/lib/gcc/arm-none-eabi/13.2.1/../../../arm-none-eabi/lib/thumb/v7e-m+fp/hard/libg.a(libc_a-memchr.o)
 .debug_abbrev  0x00005bd5      0x402 /usr/lib/gcc/arm-none-eabi/13.2.1/../../../arm-none-eabi/lib/thumb/v7e-m+fp/hard/libg.a(libc_a-svfprintf.o)
 .debug_abbrev  0x00005fd7      0x322 /usr/lib/gcc/arm-none-eabi/13.2.1/../../../arm-none-eabi/lib/thumb/v7e-m+fp/hard/libg.a(libc_a-fflush.o)
 .debug_abbrev  0x000062f9       0xc3 /usr/lib/gcc/arm-none-eabi/13.2.1/../../../arm-none-eabi/lib/thumb/v7e-m+fp/hard/libg.a(libc_a-memmove.o)
 .debug_abbrev  0x000063bc      0x2d7 /usr/lib/gcc/arm-none-eabi/13.2.1/../../../arm-none-eabi/lib/thumb/v7e-m+fp/hard/libg.a(libc_a-mallocr.o)
 .debug_abbrev  0x00006693      0x364 /usr/lib/gcc/arm-none-eabi/13.2.1/../../../arm-none-eabi/lib/thumb/v7e-m+fp/hard/libg.a(libc_a-dtoa.o)
 .debug_abbrev  0x000069f7      0x21e /usr/lib/gcc/arm-none-eabi/13.2.1/../../../arm-none-eabi/lib/thumb/v7e-m+fp/hard/libg.a(libc_a-wsetup.o)
 .debug_abbrev  0x00006c15      0x27f /usr/lib/gcc/arm-none-eabi/13.2.1/../../../arm-none-eabi/lib/thumb/v7e-m+fp/hard/libg.a(libc_a-freer.o)
 .debug_abbrev  0x00006e94      0x2ed /usr/lib/gcc/arm-none-eabi/13.2.1/../../../arm-none-eabi/lib/thumb/v7e-m+fp/hard/libg.a(libc_a-fclose.o)
 .debug_abbrev  0x00007181      0x1dd /usr/lib/gcc/arm-none-eabi/13.2.1/../../../arm-none-eabi/lib/thumb/v7e-m+fp/hard/libg.a(libc_a-__call_atexit.o)
 .debug_abbrev  0x0000735e       0x80 /usr/lib/gcc/arm-none-eabi/13.2.1/../../../arm-none-eabi/lib/thumb/v7e-m+fp/hard/libg.a(libc_a-sysconf.o)
 .debug_abbrev  0x000073de      0x260 /usr/lib/gcc/arm-none-eabi/13.2.1/../../../arm-none-eabi/lib/thumb/v7e-m+fp/hard/libg.a(libc_a-stdio.o)
 .debug_abbrev  0x0000763e      0x157 /usr/lib/gcc/arm-none-eabi/13.2.1/../../../arm-none-eabi/lib/thumb/v7e-m+fp/hard/libg.a(libc_a-__atexit.o)
 .debug_abbrev  0x00007795      0x2a3 /usr/lib/gcc/arm-none-eabi/13.2.1/../../../arm-none-eabi/lib/thumb/v7e-m+fp/hard/libg.a(libc_a-reallocr.o)
 .debug_abbrev  0x00007a38      0x1ce /usr/lib/gcc/arm-none-eabi/13.2.1/../../../arm-none-eabi/lib/thumb/v7e-m+fp/hard/libg.a(libc_a-mlock.o)
 .debug_abbrev  0x00007c06      0x1e0 /usr/lib/gcc/arm-none-eabi/13.2.1/../../../arm-none-eabi/lib/thumb/v7e-m+fp/hard/libg.a(libc_a-ssprint_r.o)
 .debug_abbrev  0x00007de6      0x216 /usr/lib/gcc/arm-none-eabi/13.2.1/../../../arm-none-eabi/lib/thumb/v7e-m+fp/hard/libg.a(libc_a-sbrkr.o)
 .debug_abbrev  0x00007ffc      0x1d4 /usr/lib/gcc/arm-none-eabi/13.2.1/../../../arm-none-eabi/lib/thumb/v7e-m+fp/hard/libg.a(libc_a-sprint_r.o)
 .debug_abbrev  0x000081d0      0x226 /usr/lib/gcc/arm-none-eabi/13.2.1/../../../arm-none-eabi/lib/thumb/v7e-m+fp/hard/libg.a(libc_a-assert.o)
 .debug_abbrev  0x000083f6      0x502 /usr/lib/gcc/arm-none-eabi/13.2.1/../../../arm-none-eabi/lib/thumb/v7e-m+fp/hard/libg.a(libc_a-mprec.o)
 .debug_abbrev  0x000088f8      0x26a /usr/lib/gcc/arm-none-eabi/13.2.1/../../../arm-none-eabi/lib/thumb/v7e-m+fp/hard/libg.a(libc_a-localeconv.o)
 .debug_abbrev  0x00008b62      0x2c1 /usr/lib/gcc/arm-none-eabi/13.2.1/../../../arm-none-eabi/lib/thumb/v7e-m+fp/hard/libg.a(libc_a-makebuf.o)
 .debug_abbrev  0x00008e23      0x2d9 /usr/lib/gcc/arm-none-eabi/13.2.1/../../../arm-none-eabi/lib/thumb/v7e-m+fp/hard/libg.a(libc_a-locale.o)
 .debug_abbrev  0x000090fc      0x244 /usr/lib/gcc/arm-none-eabi/13.2.1/../../../arm-none-eabi/lib/thumb/v7e-m+fp/hard/libg.a(libc_a-mbtowc_r.o)
 .debug_abbrev  0x00009340      0x19a /usr/lib/gcc/arm-none-eabi/13.2.1/../../../arm-none-eabi/lib/thumb/v7e-m+fp/hard/libg.a(libc_a-errno.o)
 .debug_abbrev  0x000094da       0x99 /usr/lib/gcc/arm-none-eabi/13.2.1/../../../arm-none-eabi/lib/thumb/v7e-m+fp/hard/libg.a(libc_a-abort.o)
 .debug_abbrev  0x00009573      0x25b /usr/lib/gcc/arm-none-eabi/13.2.1/../../../arm-none-eabi/lib/thumb/v7e-m+fp/hard/libg.a(libc_a-callocr.o)
 .debug_abbrev  0x000097ce      0x25a /usr/lib/gcc/arm-none-eabi/13.2.1/../../../arm-none-eabi/lib/thumb/v7e-m+fp/hard/libg.a(libc_a-ssputs_r.o)
 .debug_abbrev  0x00009a28      0x252 /usr/lib/gcc/arm-none-eabi/13.2.1/../../../arm-none-eabi/lib/thumb/v7e-m+fp/hard/libg.a(libc_a-fiprintf.o)
 .debug_abbrev  0x00009c7a      0x24e /usr/lib/gcc/arm-none-eabi/13.2.1/../../../arm-none-eabi/lib/thumb/v7e-m+fp/hard/libg.a(libc_a-wctomb_r.o)
 .debug_abbrev  0x00009ec8      0x22a /usr/lib/gcc/arm-none-eabi/13.2.1/../../../arm-none-eabi/lib/thumb/v7e-m+fp/hard/libg.a(libc_a-reent.o)
 .debug_abbrev  0x0000a0f2       0x62 /usr/lib/gcc/arm-none-eabi/13.2.1/../../../arm-none-eabi/lib/thumb/v7e-m+fp/hard/libg.a(libc_a-ctype_.o)
 .debug_abbrev  0x0000a154      0x313 /usr/lib/gcc/arm-none-eabi/13.2.1/../../../arm-none-eabi/lib/thumb/v7e-m+fp/hard/libg.a(libc_a-signal.o)
 .debug_abbrev  0x0000a467      0x3d6 /usr/lib/gcc/arm-none-eabi/13.2.1/../../../arm-none-eabi/lib/thumb/v7e-m+fp/hard/libg.a(libc_a-vfiprintf.o)
 .debug_abbrev  0x0000a83d       0x28 /usr/lib/gcc/arm-none-eabi/13.2.1/thumb/v7e-m+fp/hard/libgcc.a(_arm_unorddf2.o)

.debug_aranges  0x00000000     0x1b18
 .debug_aranges
                0x00000000       0x40 CMakeFiles/SMC.elf.dir/USER/main.c.obj
 .debug_aranges
                0x00000040       0x88 BSP/libBSP_LIB.a(sys.c.obj)
 .debug_aranges
                0x000000c8       0x50 BSP/libBSP_LIB.a(Serial.c.obj)
 .debug_aranges
                0x00000118       0x50 BSP/libBSP_LIB.a(usart.c.obj)
 .debug_aranges
                0x00000168       0x40 BSP/libBSP_LIB.a(gpio.c.obj)
 .debug_aranges
                0x000001a8       0x88 BSP/libBSP_LIB.a(stm32f4xx_gpio.c.obj)
 .debug_aranges
                0x00000230       0x40 BSP/libBSP_LIB.a(misc.c.obj)
 .debug_aranges
                0x00000270      0x1c0 BSP/libBSP_LIB.a(stm32f4xx_rcc.c.obj)
 .debug_aranges
                0x00000430       0x28 CORE/libCORE_LIB.a(stratup.c.obj)
 .debug_aranges
                0x00000458       0x30 CORE/libCORE_LIB.a(system_stm32f4xx.c.obj)
 .debug_aranges
                0x00000488      0x1b8 HARDWARE/libHARDWARE_LIB.a(inv_mpu.c.obj)
 .debug_aranges
                0x00000640       0xf8 HARDWARE/libHARDWARE_LIB.a(inv_mpu_dmp_motion_driver.c.obj)
 .debug_aranges
                0x00000738       0xf8 HARDWARE/libHARDWARE_LIB.a(OLED.c.obj)
 .debug_aranges
                0x00000830       0x18 HARDWARE/libHARDWARE_LIB.a(OLED_Data.c.obj)
 .debug_aranges
                0x00000848       0x38 HARDWARE/libHARDWARE_LIB.a(sdram.c.obj)
 .debug_aranges
                0x00000880       0x28 Project/libProject_LIB.a(adc.c.obj)
 .debug_aranges
                0x000008a8      0x148 Project/libProject_LIB.a(stm32f4xx_adc.c.obj)
 .debug_aranges
                0x000009f0       0x28 Project/libProject_LIB.a(hw201.c.obj)
 .debug_aranges
                0x00000a18       0x28 Project/libProject_LIB.a(key.c.obj)
 .debug_aranges
                0x00000a40       0x48 Project/libProject_LIB.a(led.c.obj)
 .debug_aranges
                0x00000a88       0x28 Project/libProject_LIB.a(pwm.c.obj)
 .debug_aranges
                0x00000ab0      0x2f8 Project/libProject_LIB.a(stm32f4xx_tim.c.obj)
 .debug_aranges
                0x00000da8       0x20 Project/libProject_LIB.a(tb6612_port.c.obj)
 .debug_aranges
                0x00000dc8       0x38 Project/libProject_LIB.a(ControlTask.c.obj)
 .debug_aranges
                0x00000e00       0x38 Project/libProject_LIB.a(tools.c.obj)
 .debug_aranges
                0x00000e38      0x1d8 RTOS/libRTOS_LIB.a(tasks.c.obj)
 .debug_aranges
                0x00001010       0xe8 RTOS/libRTOS_LIB.a(timers.c.obj)
 .debug_aranges
                0x000010f8       0x60 RTOS/libRTOS_LIB.a(heap_4.c.obj)
 .debug_aranges
                0x00001158       0x80 RTOS/libRTOS_LIB.a(port.c.obj)
 .debug_aranges
                0x000011d8       0x40 RTOS/libRTOS_LIB.a(list.c.obj)
 .debug_aranges
                0x00001218      0x148 RTOS/libRTOS_LIB.a(queue.c.obj)
 .debug_aranges
                0x00001360       0x40 USER/libUSER_LIB.a(RTOSTask.c.obj)
 .debug_aranges
                0x000013a0       0x80 BSP/i2c/libi2c_LIB.a(softi2c.c.obj)
 .debug_aranges
                0x00001420       0x20 /usr/lib/gcc/arm-none-eabi/13.2.1/thumb/v7e-m+fp/hard/libgcc.a(_arm_addsubdf3.o)
 .debug_aranges
                0x00001440       0x20 /usr/lib/gcc/arm-none-eabi/13.2.1/thumb/v7e-m+fp/hard/libgcc.a(_arm_muldivdf3.o)
 .debug_aranges
                0x00001460       0x20 /usr/lib/gcc/arm-none-eabi/13.2.1/thumb/v7e-m+fp/hard/libgcc.a(_arm_cmpdf2.o)
 .debug_aranges
                0x00001480       0x20 /usr/lib/gcc/arm-none-eabi/13.2.1/thumb/v7e-m+fp/hard/libgcc.a(_arm_fixdfsi.o)
 .debug_aranges
                0x000014a0       0x20 /usr/lib/gcc/arm-none-eabi/13.2.1/thumb/v7e-m+fp/hard/libgcc.a(_arm_truncdfsf2.o)
 .debug_aranges
                0x000014c0       0x20 /usr/lib/gcc/arm-none-eabi/13.2.1/../../../arm-none-eabi/lib/thumb/v7e-m+fp/hard/libg.a(libc_a-memset.o)
 .debug_aranges
                0x000014e0       0x20 /usr/lib/gcc/arm-none-eabi/13.2.1/../../../arm-none-eabi/lib/thumb/v7e-m+fp/hard/libg.a(libc_a-strcmp.o)
 .debug_aranges
                0x00001500       0x20 /usr/lib/gcc/arm-none-eabi/13.2.1/../../../arm-none-eabi/lib/thumb/v7e-m+fp/hard/libg.a(libc_a-vsprintf.o)
 .debug_aranges
                0x00001520       0x18 /usr/lib/gcc/arm-none-eabi/13.2.1/../../../arm-none-eabi/lib/thumb/v7e-m+fp/hard/libg.a(libc_a-impure.o)
 .debug_aranges
                0x00001538       0x20 /usr/lib/gcc/arm-none-eabi/13.2.1/../../../arm-none-eabi/lib/thumb/v7e-m+fp/hard/libg.a(libc_a-memcmp.o)
 .debug_aranges
                0x00001558       0x20 /usr/lib/gcc/arm-none-eabi/13.2.1/../../../arm-none-eabi/lib/thumb/v7e-m+fp/hard/libg.a(libc_a-memcpy.o)
 .debug_aranges
                0x00001578       0x20 /usr/lib/gcc/arm-none-eabi/13.2.1/../../../arm-none-eabi/lib/thumb/v7e-m+fp/hard/libg.a(libc_a-init.o)
 .debug_aranges
                0x00001598       0x20 /usr/lib/gcc/arm-none-eabi/13.2.1/../../../arm-none-eabi/lib/thumb/v7e-m+fp/hard/libg.a(libc_a-findfp.o)
 .debug_aranges
                0x000015b8       0x20 /usr/lib/gcc/arm-none-eabi/13.2.1/../../../arm-none-eabi/lib/thumb/v7e-m+fp/hard/libg.a(libc_a-puts.o)
 .debug_aranges
                0x000015d8       0x20 /usr/lib/gcc/arm-none-eabi/13.2.1/../../../arm-none-eabi/lib/thumb/v7e-m+fp/hard/libg.a(libc_a-fvwrite.o)
 .debug_aranges
                0x000015f8       0x20 /usr/lib/gcc/arm-none-eabi/13.2.1/../../../arm-none-eabi/lib/thumb/v7e-m+fp/hard/libg.a(libc_a-atexit.o)
 .debug_aranges
                0x00001618       0x20 /usr/lib/gcc/arm-none-eabi/13.2.1/../../../arm-none-eabi/lib/thumb/v7e-m+fp/hard/libg.a(libc_a-printf.o)
 .debug_aranges
                0x00001638       0x20 /usr/lib/gcc/arm-none-eabi/13.2.1/../../../arm-none-eabi/lib/thumb/v7e-m+fp/hard/libg.a(libc_a-fini.o)
 .debug_aranges
                0x00001658       0x20 /usr/lib/gcc/arm-none-eabi/13.2.1/../../../arm-none-eabi/lib/thumb/v7e-m+fp/hard/libg.a(libc_a-strlen.o)
 .debug_aranges
                0x00001678       0x20 /usr/lib/gcc/arm-none-eabi/13.2.1/../../../arm-none-eabi/lib/thumb/v7e-m+fp/hard/libg.a(libc_a-fwalk.o)
 .debug_aranges
                0x00001698       0x20 /usr/lib/gcc/arm-none-eabi/13.2.1/../../../arm-none-eabi/lib/thumb/v7e-m+fp/hard/libg.a(libc_a-vfprintf.o)
 .debug_aranges
                0x000016b8       0x20 /usr/lib/gcc/arm-none-eabi/13.2.1/../../../arm-none-eabi/lib/thumb/v7e-m+fp/hard/libg.a(libc_a-memchr.o)
 .debug_aranges
                0x000016d8       0x20 /usr/lib/gcc/arm-none-eabi/13.2.1/../../../arm-none-eabi/lib/thumb/v7e-m+fp/hard/libg.a(libc_a-svfprintf.o)
 .debug_aranges
                0x000016f8       0x20 /usr/lib/gcc/arm-none-eabi/13.2.1/../../../arm-none-eabi/lib/thumb/v7e-m+fp/hard/libg.a(libc_a-fflush.o)
 .debug_aranges
                0x00001718       0x20 /usr/lib/gcc/arm-none-eabi/13.2.1/../../../arm-none-eabi/lib/thumb/v7e-m+fp/hard/libg.a(libc_a-memmove.o)
 .debug_aranges
                0x00001738       0x20 /usr/lib/gcc/arm-none-eabi/13.2.1/../../../arm-none-eabi/lib/thumb/v7e-m+fp/hard/libg.a(libc_a-mallocr.o)
 .debug_aranges
                0x00001758       0x20 /usr/lib/gcc/arm-none-eabi/13.2.1/../../../arm-none-eabi/lib/thumb/v7e-m+fp/hard/libg.a(libc_a-dtoa.o)
 .debug_aranges
                0x00001778       0x20 /usr/lib/gcc/arm-none-eabi/13.2.1/../../../arm-none-eabi/lib/thumb/v7e-m+fp/hard/libg.a(libc_a-wsetup.o)
 .debug_aranges
                0x00001798       0x20 /usr/lib/gcc/arm-none-eabi/13.2.1/../../../arm-none-eabi/lib/thumb/v7e-m+fp/hard/libg.a(libc_a-freer.o)
 .debug_aranges
                0x000017b8       0x20 /usr/lib/gcc/arm-none-eabi/13.2.1/../../../arm-none-eabi/lib/thumb/v7e-m+fp/hard/libg.a(libc_a-fclose.o)
 .debug_aranges
                0x000017d8       0x28 /usr/lib/gcc/arm-none-eabi/13.2.1/../../../arm-none-eabi/lib/thumb/v7e-m+fp/hard/libg.a(libc_a-__call_atexit.o)
 .debug_aranges
                0x00001800       0x20 /usr/lib/gcc/arm-none-eabi/13.2.1/../../../arm-none-eabi/lib/thumb/v7e-m+fp/hard/libg.a(libc_a-sysconf.o)
 .debug_aranges
                0x00001820       0x20 /usr/lib/gcc/arm-none-eabi/13.2.1/../../../arm-none-eabi/lib/thumb/v7e-m+fp/hard/libg.a(libc_a-stdio.o)
 .debug_aranges
                0x00001840       0x20 /usr/lib/gcc/arm-none-eabi/13.2.1/../../../arm-none-eabi/lib/thumb/v7e-m+fp/hard/libg.a(libc_a-__atexit.o)
 .debug_aranges
                0x00001860       0x20 /usr/lib/gcc/arm-none-eabi/13.2.1/../../../arm-none-eabi/lib/thumb/v7e-m+fp/hard/libg.a(libc_a-reallocr.o)
 .debug_aranges
                0x00001880       0x20 /usr/lib/gcc/arm-none-eabi/13.2.1/../../../arm-none-eabi/lib/thumb/v7e-m+fp/hard/libg.a(libc_a-mlock.o)
 .debug_aranges
                0x000018a0       0x20 /usr/lib/gcc/arm-none-eabi/13.2.1/../../../arm-none-eabi/lib/thumb/v7e-m+fp/hard/libg.a(libc_a-ssprint_r.o)
 .debug_aranges
                0x000018c0       0x20 /usr/lib/gcc/arm-none-eabi/13.2.1/../../../arm-none-eabi/lib/thumb/v7e-m+fp/hard/libg.a(libc_a-sbrkr.o)
 .debug_aranges
                0x000018e0       0x20 /usr/lib/gcc/arm-none-eabi/13.2.1/../../../arm-none-eabi/lib/thumb/v7e-m+fp/hard/libg.a(libc_a-sprint_r.o)
 .debug_aranges
                0x00001900       0x20 /usr/lib/gcc/arm-none-eabi/13.2.1/../../../arm-none-eabi/lib/thumb/v7e-m+fp/hard/libg.a(libc_a-assert.o)
 .debug_aranges
                0x00001920       0x20 /usr/lib/gcc/arm-none-eabi/13.2.1/../../../arm-none-eabi/lib/thumb/v7e-m+fp/hard/libg.a(libc_a-mprec.o)
 .debug_aranges
                0x00001940       0x20 /usr/lib/gcc/arm-none-eabi/13.2.1/../../../arm-none-eabi/lib/thumb/v7e-m+fp/hard/libg.a(libc_a-localeconv.o)
 .debug_aranges
                0x00001960       0x20 /usr/lib/gcc/arm-none-eabi/13.2.1/../../../arm-none-eabi/lib/thumb/v7e-m+fp/hard/libg.a(libc_a-makebuf.o)
 .debug_aranges
                0x00001980       0x20 /usr/lib/gcc/arm-none-eabi/13.2.1/../../../arm-none-eabi/lib/thumb/v7e-m+fp/hard/libg.a(libc_a-locale.o)
 .debug_aranges
                0x000019a0       0x20 /usr/lib/gcc/arm-none-eabi/13.2.1/../../../arm-none-eabi/lib/thumb/v7e-m+fp/hard/libg.a(libc_a-mbtowc_r.o)
 .debug_aranges
                0x000019c0       0x20 /usr/lib/gcc/arm-none-eabi/13.2.1/../../../arm-none-eabi/lib/thumb/v7e-m+fp/hard/libg.a(libc_a-errno.o)
 .debug_aranges
                0x000019e0       0x20 /usr/lib/gcc/arm-none-eabi/13.2.1/../../../arm-none-eabi/lib/thumb/v7e-m+fp/hard/libg.a(libc_a-abort.o)
 .debug_aranges
                0x00001a00       0x20 /usr/lib/gcc/arm-none-eabi/13.2.1/../../../arm-none-eabi/lib/thumb/v7e-m+fp/hard/libg.a(libc_a-callocr.o)
 .debug_aranges
                0x00001a20       0x20 /usr/lib/gcc/arm-none-eabi/13.2.1/../../../arm-none-eabi/lib/thumb/v7e-m+fp/hard/libg.a(libc_a-ssputs_r.o)
 .debug_aranges
                0x00001a40       0x20 /usr/lib/gcc/arm-none-eabi/13.2.1/../../../arm-none-eabi/lib/thumb/v7e-m+fp/hard/libg.a(libc_a-fiprintf.o)
 .debug_aranges
                0x00001a60       0x20 /usr/lib/gcc/arm-none-eabi/13.2.1/../../../arm-none-eabi/lib/thumb/v7e-m+fp/hard/libg.a(libc_a-wctomb_r.o)
 .debug_aranges
                0x00001a80       0x20 /usr/lib/gcc/arm-none-eabi/13.2.1/../../../arm-none-eabi/lib/thumb/v7e-m+fp/hard/libg.a(libc_a-reent.o)
 .debug_aranges
                0x00001aa0       0x18 /usr/lib/gcc/arm-none-eabi/13.2.1/../../../arm-none-eabi/lib/thumb/v7e-m+fp/hard/libg.a(libc_a-ctype_.o)
 .debug_aranges
                0x00001ab8       0x20 /usr/lib/gcc/arm-none-eabi/13.2.1/../../../arm-none-eabi/lib/thumb/v7e-m+fp/hard/libg.a(libc_a-signal.o)
 .debug_aranges
                0x00001ad8       0x20 /usr/lib/gcc/arm-none-eabi/13.2.1/../../../arm-none-eabi/lib/thumb/v7e-m+fp/hard/libg.a(libc_a-vfiprintf.o)
 .debug_aranges
                0x00001af8       0x20 /usr/lib/gcc/arm-none-eabi/13.2.1/thumb/v7e-m+fp/hard/libgcc.a(_arm_unorddf2.o)

.debug_rnglists
                0x00000000     0x1682
 .debug_rnglists
                0x00000000       0x2c CMakeFiles/SMC.elf.dir/USER/main.c.obj
 .debug_rnglists
                0x0000002c       0x62 BSP/libBSP_LIB.a(sys.c.obj)
 .debug_rnglists
                0x0000008e       0x50 BSP/libBSP_LIB.a(Serial.c.obj)
 .debug_rnglists
                0x000000de       0x3c BSP/libBSP_LIB.a(usart.c.obj)
 .debug_rnglists
                0x0000011a       0x2c BSP/libBSP_LIB.a(gpio.c.obj)
 .debug_rnglists
                0x00000146       0x63 BSP/libBSP_LIB.a(stm32f4xx_gpio.c.obj)
 .debug_rnglists
                0x000001a9       0x2b BSP/libBSP_LIB.a(misc.c.obj)
 .debug_rnglists
                0x000001d4      0x14c BSP/libBSP_LIB.a(stm32f4xx_rcc.c.obj)
 .debug_rnglists
                0x00000320       0x19 CORE/libCORE_LIB.a(stratup.c.obj)
 .debug_rnglists
                0x00000339       0x21 CORE/libCORE_LIB.a(system_stm32f4xx.c.obj)
 .debug_rnglists
                0x0000035a      0x181 HARDWARE/libHARDWARE_LIB.a(inv_mpu.c.obj)
 .debug_rnglists
                0x000004db       0xbb HARDWARE/libHARDWARE_LIB.a(inv_mpu_dmp_motion_driver.c.obj)
 .debug_rnglists
                0x00000596       0xc2 HARDWARE/libHARDWARE_LIB.a(OLED.c.obj)
 .debug_rnglists
                0x00000658       0x26 HARDWARE/libHARDWARE_LIB.a(sdram.c.obj)
 .debug_rnglists
                0x0000067e       0x1b Project/libProject_LIB.a(adc.c.obj)
 .debug_rnglists
                0x00000699       0xf2 Project/libProject_LIB.a(stm32f4xx_adc.c.obj)
 .debug_rnglists
                0x0000078b       0x19 Project/libProject_LIB.a(hw201.c.obj)
 .debug_rnglists
                0x000007a4       0x19 Project/libProject_LIB.a(key.c.obj)
 .debug_rnglists
                0x000007bd       0x31 Project/libProject_LIB.a(led.c.obj)
 .debug_rnglists
                0x000007ee       0x1b Project/libProject_LIB.a(pwm.c.obj)
 .debug_rnglists
                0x00000809      0x238 Project/libProject_LIB.a(stm32f4xx_tim.c.obj)
 .debug_rnglists
                0x00000a41       0x13 Project/libProject_LIB.a(tb6612_port.c.obj)
 .debug_rnglists
                0x00000a54       0x25 Project/libProject_LIB.a(ControlTask.c.obj)
 .debug_rnglists
                0x00000a79       0x27 Project/libProject_LIB.a(tools.c.obj)
 .debug_rnglists
                0x00000aa0      0x279 RTOS/libRTOS_LIB.a(tasks.c.obj)
 .debug_rnglists
                0x00000d19       0xaa RTOS/libRTOS_LIB.a(timers.c.obj)
 .debug_rnglists
                0x00000dc3       0x45 RTOS/libRTOS_LIB.a(heap_4.c.obj)
 .debug_rnglists
                0x00000e08       0x5c RTOS/libRTOS_LIB.a(port.c.obj)
 .debug_rnglists
                0x00000e64       0x2b RTOS/libRTOS_LIB.a(list.c.obj)
 .debug_rnglists
                0x00000e8f      0x169 RTOS/libRTOS_LIB.a(queue.c.obj)
 .debug_rnglists
                0x00000ff8       0x38 USER/libUSER_LIB.a(RTOSTask.c.obj)
 .debug_rnglists
                0x00001030       0x5b BSP/i2c/libi2c_LIB.a(softi2c.c.obj)
 .debug_rnglists
                0x0000108b       0x13 /usr/lib/gcc/arm-none-eabi/13.2.1/../../../arm-none-eabi/lib/thumb/v7e-m+fp/hard/libg.a(libc_a-vsprintf.o)
 .debug_rnglists
                0x0000109e       0x77 /usr/lib/gcc/arm-none-eabi/13.2.1/../../../arm-none-eabi/lib/thumb/v7e-m+fp/hard/libg.a(libc_a-findfp.o)
 .debug_rnglists
                0x00001115       0x16 /usr/lib/gcc/arm-none-eabi/13.2.1/../../../arm-none-eabi/lib/thumb/v7e-m+fp/hard/libg.a(libc_a-puts.o)
 .debug_rnglists
                0x0000112b       0x2b /usr/lib/gcc/arm-none-eabi/13.2.1/../../../arm-none-eabi/lib/thumb/v7e-m+fp/hard/libg.a(libc_a-fvwrite.o)
 .debug_rnglists
                0x00001156       0xde /usr/lib/gcc/arm-none-eabi/13.2.1/../../../arm-none-eabi/lib/thumb/v7e-m+fp/hard/libg.a(libc_a-vfprintf.o)
 .debug_rnglists
                0x00001234       0xd5 /usr/lib/gcc/arm-none-eabi/13.2.1/../../../arm-none-eabi/lib/thumb/v7e-m+fp/hard/libg.a(libc_a-svfprintf.o)
 .debug_rnglists
                0x00001309       0x59 /usr/lib/gcc/arm-none-eabi/13.2.1/../../../arm-none-eabi/lib/thumb/v7e-m+fp/hard/libg.a(libc_a-fflush.o)
 .debug_rnglists
                0x00001362       0x2b /usr/lib/gcc/arm-none-eabi/13.2.1/../../../arm-none-eabi/lib/thumb/v7e-m+fp/hard/libg.a(libc_a-mallocr.o)
 .debug_rnglists
                0x0000138d       0x27 /usr/lib/gcc/arm-none-eabi/13.2.1/../../../arm-none-eabi/lib/thumb/v7e-m+fp/hard/libg.a(libc_a-dtoa.o)
 .debug_rnglists
                0x000013b4       0x1b /usr/lib/gcc/arm-none-eabi/13.2.1/../../../arm-none-eabi/lib/thumb/v7e-m+fp/hard/libg.a(libc_a-wsetup.o)
 .debug_rnglists
                0x000013cf       0x1b /usr/lib/gcc/arm-none-eabi/13.2.1/../../../arm-none-eabi/lib/thumb/v7e-m+fp/hard/libg.a(libc_a-fclose.o)
 .debug_rnglists
                0x000013ea       0x3a /usr/lib/gcc/arm-none-eabi/13.2.1/../../../arm-none-eabi/lib/thumb/v7e-m+fp/hard/libg.a(libc_a-__call_atexit.o)
 .debug_rnglists
                0x00001424       0xa3 /usr/lib/gcc/arm-none-eabi/13.2.1/../../../arm-none-eabi/lib/thumb/v7e-m+fp/hard/libg.a(libc_a-reallocr.o)
 .debug_rnglists
                0x000014c7       0xa8 /usr/lib/gcc/arm-none-eabi/13.2.1/../../../arm-none-eabi/lib/thumb/v7e-m+fp/hard/libg.a(libc_a-mprec.o)
 .debug_rnglists
                0x0000156f       0x31 /usr/lib/gcc/arm-none-eabi/13.2.1/../../../arm-none-eabi/lib/thumb/v7e-m+fp/hard/libg.a(libc_a-makebuf.o)
 .debug_rnglists
                0x000015a0       0x19 /usr/lib/gcc/arm-none-eabi/13.2.1/../../../arm-none-eabi/lib/thumb/v7e-m+fp/hard/libg.a(libc_a-locale.o)
 .debug_rnglists
                0x000015b9       0x23 /usr/lib/gcc/arm-none-eabi/13.2.1/../../../arm-none-eabi/lib/thumb/v7e-m+fp/hard/libg.a(libc_a-callocr.o)
 .debug_rnglists
                0x000015dc       0x1e /usr/lib/gcc/arm-none-eabi/13.2.1/../../../arm-none-eabi/lib/thumb/v7e-m+fp/hard/libg.a(libc_a-ssputs_r.o)
 .debug_rnglists
                0x000015fa       0x65 /usr/lib/gcc/arm-none-eabi/13.2.1/../../../arm-none-eabi/lib/thumb/v7e-m+fp/hard/libg.a(libc_a-signal.o)
 .debug_rnglists
                0x0000165f       0x23 /usr/lib/gcc/arm-none-eabi/13.2.1/../../../arm-none-eabi/lib/thumb/v7e-m+fp/hard/libg.a(libc_a-vfiprintf.o)

.debug_line     0x00000000    0x1e0ff
 .debug_line    0x00000000      0x447 CMakeFiles/SMC.elf.dir/USER/main.c.obj
 .debug_line    0x00000447      0x30e BSP/libBSP_LIB.a(sys.c.obj)
 .debug_line    0x00000755      0x42e BSP/libBSP_LIB.a(Serial.c.obj)
 .debug_line    0x00000b83      0x54c BSP/libBSP_LIB.a(usart.c.obj)
 .debug_line    0x000010cf      0x297 BSP/libBSP_LIB.a(gpio.c.obj)
 .debug_line    0x00001366      0x4dc BSP/libBSP_LIB.a(stm32f4xx_gpio.c.obj)
 .debug_line    0x00001842      0x214 BSP/libBSP_LIB.a(misc.c.obj)
 .debug_line    0x00001a56      0xbfa BSP/libBSP_LIB.a(stm32f4xx_rcc.c.obj)
 .debug_line    0x00002650      0x106 CORE/libCORE_LIB.a(stratup.c.obj)
 .debug_line    0x00002756      0x36b CORE/libCORE_LIB.a(system_stm32f4xx.c.obj)
 .debug_line    0x00002ac1     0x27a7 HARDWARE/libHARDWARE_LIB.a(inv_mpu.c.obj)
 .debug_line    0x00005268      0xfd3 HARDWARE/libHARDWARE_LIB.a(inv_mpu_dmp_motion_driver.c.obj)
 .debug_line    0x0000623b     0x16de HARDWARE/libHARDWARE_LIB.a(OLED.c.obj)
 .debug_line    0x00007919       0x9d HARDWARE/libHARDWARE_LIB.a(OLED_Data.c.obj)
 .debug_line    0x000079b6      0x294 HARDWARE/libHARDWARE_LIB.a(sdram.c.obj)
 .debug_line    0x00007c4a      0x243 Project/libProject_LIB.a(adc.c.obj)
 .debug_line    0x00007e8d      0xac5 Project/libProject_LIB.a(stm32f4xx_adc.c.obj)
 .debug_line    0x00008952      0x103 Project/libProject_LIB.a(hw201.c.obj)
 .debug_line    0x00008a55      0x1c2 Project/libProject_LIB.a(key.c.obj)
 .debug_line    0x00008c17      0x244 Project/libProject_LIB.a(led.c.obj)
 .debug_line    0x00008e5b      0x205 Project/libProject_LIB.a(pwm.c.obj)
 .debug_line    0x00009060     0x1922 Project/libProject_LIB.a(stm32f4xx_tim.c.obj)
 .debug_line    0x0000a982      0x160 Project/libProject_LIB.a(tb6612_port.c.obj)
 .debug_line    0x0000aae2      0x244 Project/libProject_LIB.a(ControlTask.c.obj)
 .debug_line    0x0000ad26      0x444 Project/libProject_LIB.a(tools.c.obj)
 .debug_line    0x0000b16a     0x1e5f RTOS/libRTOS_LIB.a(tasks.c.obj)
 .debug_line    0x0000cfc9      0x927 RTOS/libRTOS_LIB.a(timers.c.obj)
 .debug_line    0x0000d8f0      0x5fe RTOS/libRTOS_LIB.a(heap_4.c.obj)
 .debug_line    0x0000deee      0x48d RTOS/libRTOS_LIB.a(port.c.obj)
 .debug_line    0x0000e37b      0x2a8 RTOS/libRTOS_LIB.a(list.c.obj)
 .debug_line    0x0000e623     0x15e2 RTOS/libRTOS_LIB.a(queue.c.obj)
 .debug_line    0x0000fc05      0x53d USER/libUSER_LIB.a(RTOSTask.c.obj)
 .debug_line    0x00010142      0x614 BSP/i2c/libi2c_LIB.a(softi2c.c.obj)
 .debug_line    0x00010756      0x16f /usr/lib/gcc/arm-none-eabi/13.2.1/thumb/v7e-m+fp/hard/libgcc.a(_arm_addsubdf3.o)
 .debug_line    0x000108c5      0x184 /usr/lib/gcc/arm-none-eabi/13.2.1/thumb/v7e-m+fp/hard/libgcc.a(_arm_muldivdf3.o)
 .debug_line    0x00010a49       0xa6 /usr/lib/gcc/arm-none-eabi/13.2.1/thumb/v7e-m+fp/hard/libgcc.a(_arm_cmpdf2.o)
 .debug_line    0x00010aef       0x62 /usr/lib/gcc/arm-none-eabi/13.2.1/thumb/v7e-m+fp/hard/libgcc.a(_arm_fixdfsi.o)
 .debug_line    0x00010b51       0x76 /usr/lib/gcc/arm-none-eabi/13.2.1/thumb/v7e-m+fp/hard/libgcc.a(_arm_truncdfsf2.o)
 .debug_line    0x00010bc7      0x1b6 /usr/lib/gcc/arm-none-eabi/13.2.1/../../../arm-none-eabi/lib/thumb/v7e-m+fp/hard/libg.a(libc_a-memset.o)
 .debug_line    0x00010d7d      0x10e /usr/lib/gcc/arm-none-eabi/13.2.1/../../../arm-none-eabi/lib/thumb/v7e-m+fp/hard/libg.a(libc_a-strcmp.o)
 .debug_line    0x00010e8b      0x221 /usr/lib/gcc/arm-none-eabi/13.2.1/../../../arm-none-eabi/lib/thumb/v7e-m+fp/hard/libg.a(libc_a-vsprintf.o)
 .debug_line    0x000110ac       0xe7 /usr/lib/gcc/arm-none-eabi/13.2.1/../../../arm-none-eabi/lib/thumb/v7e-m+fp/hard/libg.a(libc_a-impure.o)
 .debug_line    0x00011193      0x17a /usr/lib/gcc/arm-none-eabi/13.2.1/../../../arm-none-eabi/lib/thumb/v7e-m+fp/hard/libg.a(libc_a-memcmp.o)
 .debug_line    0x0001130d       0xb9 /usr/lib/gcc/arm-none-eabi/13.2.1/../../../arm-none-eabi/lib/thumb/v7e-m+fp/hard/libg.a(libc_a-memcpy.o)
 .debug_line    0x000113c6      0x11e /usr/lib/gcc/arm-none-eabi/13.2.1/../../../arm-none-eabi/lib/thumb/v7e-m+fp/hard/libg.a(libc_a-init.o)
 .debug_line    0x000114e4      0x4fc /usr/lib/gcc/arm-none-eabi/13.2.1/../../../arm-none-eabi/lib/thumb/v7e-m+fp/hard/libg.a(libc_a-findfp.o)
 .debug_line    0x000119e0      0x24a /usr/lib/gcc/arm-none-eabi/13.2.1/../../../arm-none-eabi/lib/thumb/v7e-m+fp/hard/libg.a(libc_a-puts.o)
 .debug_line    0x00011c2a      0x5ec /usr/lib/gcc/arm-none-eabi/13.2.1/../../../arm-none-eabi/lib/thumb/v7e-m+fp/hard/libg.a(libc_a-fvwrite.o)
 .debug_line    0x00012216       0xc3 /usr/lib/gcc/arm-none-eabi/13.2.1/../../../arm-none-eabi/lib/thumb/v7e-m+fp/hard/libg.a(libc_a-atexit.o)
 .debug_line    0x000122d9      0x1c5 /usr/lib/gcc/arm-none-eabi/13.2.1/../../../arm-none-eabi/lib/thumb/v7e-m+fp/hard/libg.a(libc_a-printf.o)
 .debug_line    0x0001249e       0xd2 /usr/lib/gcc/arm-none-eabi/13.2.1/../../../arm-none-eabi/lib/thumb/v7e-m+fp/hard/libg.a(libc_a-fini.o)
 .debug_line    0x00012570       0x86 /usr/lib/gcc/arm-none-eabi/13.2.1/../../../arm-none-eabi/lib/thumb/v7e-m+fp/hard/libg.a(libc_a-strlen.o)
 .debug_line    0x000125f6      0x1d1 /usr/lib/gcc/arm-none-eabi/13.2.1/../../../arm-none-eabi/lib/thumb/v7e-m+fp/hard/libg.a(libc_a-fwalk.o)
 .debug_line    0x000127c7     0x1a85 /usr/lib/gcc/arm-none-eabi/13.2.1/../../../arm-none-eabi/lib/thumb/v7e-m+fp/hard/libg.a(libc_a-vfprintf.o)
 .debug_line    0x0001424c       0x84 /usr/lib/gcc/arm-none-eabi/13.2.1/../../../arm-none-eabi/lib/thumb/v7e-m+fp/hard/libg.a(libc_a-memchr.o)
 .debug_line    0x000142d0     0x1951 /usr/lib/gcc/arm-none-eabi/13.2.1/../../../arm-none-eabi/lib/thumb/v7e-m+fp/hard/libg.a(libc_a-svfprintf.o)
 .debug_line    0x00015c21      0x45d /usr/lib/gcc/arm-none-eabi/13.2.1/../../../arm-none-eabi/lib/thumb/v7e-m+fp/hard/libg.a(libc_a-fflush.o)
 .debug_line    0x0001607e      0x1f1 /usr/lib/gcc/arm-none-eabi/13.2.1/../../../arm-none-eabi/lib/thumb/v7e-m+fp/hard/libg.a(libc_a-memmove.o)
 .debug_line    0x0001626f      0x8eb /usr/lib/gcc/arm-none-eabi/13.2.1/../../../arm-none-eabi/lib/thumb/v7e-m+fp/hard/libg.a(libc_a-mallocr.o)
 .debug_line    0x00016b5a     0x145e /usr/lib/gcc/arm-none-eabi/13.2.1/../../../arm-none-eabi/lib/thumb/v7e-m+fp/hard/libg.a(libc_a-dtoa.o)
 .debug_line    0x00017fb8      0x2b0 /usr/lib/gcc/arm-none-eabi/13.2.1/../../../arm-none-eabi/lib/thumb/v7e-m+fp/hard/libg.a(libc_a-wsetup.o)
 .debug_line    0x00018268      0x545 /usr/lib/gcc/arm-none-eabi/13.2.1/../../../arm-none-eabi/lib/thumb/v7e-m+fp/hard/libg.a(libc_a-freer.o)
 .debug_line    0x000187ad      0x253 /usr/lib/gcc/arm-none-eabi/13.2.1/../../../arm-none-eabi/lib/thumb/v7e-m+fp/hard/libg.a(libc_a-fclose.o)
 .debug_line    0x00018a00      0x27f /usr/lib/gcc/arm-none-eabi/13.2.1/../../../arm-none-eabi/lib/thumb/v7e-m+fp/hard/libg.a(libc_a-__call_atexit.o)
 .debug_line    0x00018c7f       0xe6 /usr/lib/gcc/arm-none-eabi/13.2.1/../../../arm-none-eabi/lib/thumb/v7e-m+fp/hard/libg.a(libc_a-sysconf.o)
 .debug_line    0x00018d65      0x22b /usr/lib/gcc/arm-none-eabi/13.2.1/../../../arm-none-eabi/lib/thumb/v7e-m+fp/hard/libg.a(libc_a-stdio.o)
 .debug_line    0x00018f90      0x14f /usr/lib/gcc/arm-none-eabi/13.2.1/../../../arm-none-eabi/lib/thumb/v7e-m+fp/hard/libg.a(libc_a-__atexit.o)
 .debug_line    0x000190df      0x698 /usr/lib/gcc/arm-none-eabi/13.2.1/../../../arm-none-eabi/lib/thumb/v7e-m+fp/hard/libg.a(libc_a-reallocr.o)
 .debug_line    0x00019777      0x153 /usr/lib/gcc/arm-none-eabi/13.2.1/../../../arm-none-eabi/lib/thumb/v7e-m+fp/hard/libg.a(libc_a-mlock.o)
 .debug_line    0x000198ca      0x1e0 /usr/lib/gcc/arm-none-eabi/13.2.1/../../../arm-none-eabi/lib/thumb/v7e-m+fp/hard/libg.a(libc_a-ssprint_r.o)
 .debug_line    0x00019aaa      0x193 /usr/lib/gcc/arm-none-eabi/13.2.1/../../../arm-none-eabi/lib/thumb/v7e-m+fp/hard/libg.a(libc_a-sbrkr.o)
 .debug_line    0x00019c3d      0x189 /usr/lib/gcc/arm-none-eabi/13.2.1/../../../arm-none-eabi/lib/thumb/v7e-m+fp/hard/libg.a(libc_a-sprint_r.o)
 .debug_line    0x00019dc6      0x1ad /usr/lib/gcc/arm-none-eabi/13.2.1/../../../arm-none-eabi/lib/thumb/v7e-m+fp/hard/libg.a(libc_a-assert.o)
 .debug_line    0x00019f73     0x1424 /usr/lib/gcc/arm-none-eabi/13.2.1/../../../arm-none-eabi/lib/thumb/v7e-m+fp/hard/libg.a(libc_a-mprec.o)
 .debug_line    0x0001b397      0x17e /usr/lib/gcc/arm-none-eabi/13.2.1/../../../arm-none-eabi/lib/thumb/v7e-m+fp/hard/libg.a(libc_a-localeconv.o)
 .debug_line    0x0001b515      0x3bd /usr/lib/gcc/arm-none-eabi/13.2.1/../../../arm-none-eabi/lib/thumb/v7e-m+fp/hard/libg.a(libc_a-makebuf.o)
 .debug_line    0x0001b8d2      0x29f /usr/lib/gcc/arm-none-eabi/13.2.1/../../../arm-none-eabi/lib/thumb/v7e-m+fp/hard/libg.a(libc_a-locale.o)
 .debug_line    0x0001bb71      0x214 /usr/lib/gcc/arm-none-eabi/13.2.1/../../../arm-none-eabi/lib/thumb/v7e-m+fp/hard/libg.a(libc_a-mbtowc_r.o)
 .debug_line    0x0001bd85      0x10c /usr/lib/gcc/arm-none-eabi/13.2.1/../../../arm-none-eabi/lib/thumb/v7e-m+fp/hard/libg.a(libc_a-errno.o)
 .debug_line    0x0001be91      0x115 /usr/lib/gcc/arm-none-eabi/13.2.1/../../../arm-none-eabi/lib/thumb/v7e-m+fp/hard/libg.a(libc_a-abort.o)
 .debug_line    0x0001bfa6      0x208 /usr/lib/gcc/arm-none-eabi/13.2.1/../../../arm-none-eabi/lib/thumb/v7e-m+fp/hard/libg.a(libc_a-callocr.o)
 .debug_line    0x0001c1ae      0x27b /usr/lib/gcc/arm-none-eabi/13.2.1/../../../arm-none-eabi/lib/thumb/v7e-m+fp/hard/libg.a(libc_a-ssputs_r.o)
 .debug_line    0x0001c429      0x1a9 /usr/lib/gcc/arm-none-eabi/13.2.1/../../../arm-none-eabi/lib/thumb/v7e-m+fp/hard/libg.a(libc_a-fiprintf.o)
 .debug_line    0x0001c5d2      0x1fe /usr/lib/gcc/arm-none-eabi/13.2.1/../../../arm-none-eabi/lib/thumb/v7e-m+fp/hard/libg.a(libc_a-wctomb_r.o)
 .debug_line    0x0001c7d0      0x1f0 /usr/lib/gcc/arm-none-eabi/13.2.1/../../../arm-none-eabi/lib/thumb/v7e-m+fp/hard/libg.a(libc_a-reent.o)
 .debug_line    0x0001c9c0       0x97 /usr/lib/gcc/arm-none-eabi/13.2.1/../../../arm-none-eabi/lib/thumb/v7e-m+fp/hard/libg.a(libc_a-ctype_.o)
 .debug_line    0x0001ca57      0x66f /usr/lib/gcc/arm-none-eabi/13.2.1/../../../arm-none-eabi/lib/thumb/v7e-m+fp/hard/libg.a(libc_a-signal.o)
 .debug_line    0x0001d0c6      0xfe2 /usr/lib/gcc/arm-none-eabi/13.2.1/../../../arm-none-eabi/lib/thumb/v7e-m+fp/hard/libg.a(libc_a-vfiprintf.o)
 .debug_line    0x0001e0a8       0x57 /usr/lib/gcc/arm-none-eabi/13.2.1/thumb/v7e-m+fp/hard/libgcc.a(_arm_unorddf2.o)

.debug_str      0x00000000     0x83f3
 .debug_str     0x00000000     0x83f3 CMakeFiles/SMC.elf.dir/USER/main.c.obj
                                0x75c (size before relaxing)
 .debug_str     0x000083f3      0x89e BSP/libBSP_LIB.a(sys.c.obj)
 .debug_str     0x000083f3      0x38c BSP/libBSP_LIB.a(Serial.c.obj)
 .debug_str     0x000083f3      0x651 BSP/libBSP_LIB.a(usart.c.obj)
 .debug_str     0x000083f3      0x28a BSP/libBSP_LIB.a(gpio.c.obj)
 .debug_str     0x000083f3      0x4ee BSP/libBSP_LIB.a(stm32f4xx_gpio.c.obj)
 .debug_str     0x000083f3      0x402 BSP/libBSP_LIB.a(misc.c.obj)
 .debug_str     0x000083f3      0x9f3 BSP/libBSP_LIB.a(stm32f4xx_rcc.c.obj)
 .debug_str     0x000083f3      0x25b CORE/libCORE_LIB.a(stratup.c.obj)
 .debug_str     0x000083f3      0x407 CORE/libCORE_LIB.a(system_stm32f4xx.c.obj)
 .debug_str     0x000083f3      0xd53 HARDWARE/libHARDWARE_LIB.a(inv_mpu.c.obj)
 .debug_str     0x000083f3      0x6e1 HARDWARE/libHARDWARE_LIB.a(inv_mpu_dmp_motion_driver.c.obj)
 .debug_str     0x000083f3      0x62e HARDWARE/libHARDWARE_LIB.a(OLED.c.obj)
 .debug_str     0x000083f3      0x213 HARDWARE/libHARDWARE_LIB.a(OLED_Data.c.obj)
 .debug_str     0x000083f3      0x430 HARDWARE/libHARDWARE_LIB.a(sdram.c.obj)
 .debug_str     0x000083f3      0x61a Project/libProject_LIB.a(adc.c.obj)
 .debug_str     0x000083f3      0x854 Project/libProject_LIB.a(stm32f4xx_adc.c.obj)
 .debug_str     0x000083f3      0x367 Project/libProject_LIB.a(hw201.c.obj)
 .debug_str     0x000083f3      0x3f7 Project/libProject_LIB.a(key.c.obj)
 .debug_str     0x000083f3      0x456 Project/libProject_LIB.a(led.c.obj)
 .debug_str     0x000083f3      0x52d Project/libProject_LIB.a(pwm.c.obj)
 .debug_str     0x000083f3      0xe37 Project/libProject_LIB.a(stm32f4xx_tim.c.obj)
 .debug_str     0x000083f3      0x4bf Project/libProject_LIB.a(tb6612_port.c.obj)
 .debug_str     0x000083f3      0x31d Project/libProject_LIB.a(ControlTask.c.obj)
 .debug_str     0x000083f3      0x5c5 Project/libProject_LIB.a(tools.c.obj)
 .debug_str     0x000083f3     0x10cb RTOS/libRTOS_LIB.a(tasks.c.obj)
 .debug_str     0x000083f3      0x9ab RTOS/libRTOS_LIB.a(timers.c.obj)
 .debug_str     0x000083f3      0x529 RTOS/libRTOS_LIB.a(heap_4.c.obj)
 .debug_str     0x000083f3      0x466 RTOS/libRTOS_LIB.a(port.c.obj)
 .debug_str     0x000083f3      0x314 RTOS/libRTOS_LIB.a(list.c.obj)
 .debug_str     0x000083f3      0xc58 RTOS/libRTOS_LIB.a(queue.c.obj)
 .debug_str     0x000083f3      0x5d3 USER/libUSER_LIB.a(RTOSTask.c.obj)
 .debug_str     0x000083f3      0x4bf BSP/i2c/libi2c_LIB.a(softi2c.c.obj)
 .debug_str     0x000083f3      0x154 /usr/lib/gcc/arm-none-eabi/13.2.1/thumb/v7e-m+fp/hard/libgcc.a(_arm_addsubdf3.o)
 .debug_str     0x000083f3       0xd4 /usr/lib/gcc/arm-none-eabi/13.2.1/thumb/v7e-m+fp/hard/libgcc.a(_arm_muldivdf3.o)
 .debug_str     0x000083f3      0x15d /usr/lib/gcc/arm-none-eabi/13.2.1/thumb/v7e-m+fp/hard/libgcc.a(_arm_cmpdf2.o)
 .debug_str     0x000083f3       0xbf /usr/lib/gcc/arm-none-eabi/13.2.1/thumb/v7e-m+fp/hard/libgcc.a(_arm_fixdfsi.o)
 .debug_str     0x000083f3       0xc1 /usr/lib/gcc/arm-none-eabi/13.2.1/thumb/v7e-m+fp/hard/libgcc.a(_arm_truncdfsf2.o)
 .debug_str     0x000083f3      0x1a8 /usr/lib/gcc/arm-none-eabi/13.2.1/../../../arm-none-eabi/lib/thumb/v7e-m+fp/hard/libg.a(libc_a-memset.o)
 .debug_str     0x000083f3       0xa6 /usr/lib/gcc/arm-none-eabi/13.2.1/../../../arm-none-eabi/lib/thumb/v7e-m+fp/hard/libg.a(libc_a-strcmp.o)
 .debug_str     0x000083f3      0x4e9 /usr/lib/gcc/arm-none-eabi/13.2.1/../../../arm-none-eabi/lib/thumb/v7e-m+fp/hard/libg.a(libc_a-vsprintf.o)
 .debug_str     0x000083f3      0x4ac /usr/lib/gcc/arm-none-eabi/13.2.1/../../../arm-none-eabi/lib/thumb/v7e-m+fp/hard/libg.a(libc_a-impure.o)
 .debug_str     0x000083f3      0x194 /usr/lib/gcc/arm-none-eabi/13.2.1/../../../arm-none-eabi/lib/thumb/v7e-m+fp/hard/libg.a(libc_a-memcmp.o)
 .debug_str     0x000083f3       0xa7 /usr/lib/gcc/arm-none-eabi/13.2.1/../../../arm-none-eabi/lib/thumb/v7e-m+fp/hard/libg.a(libc_a-memcpy.o)
 .debug_str     0x000083f3      0x1f5 /usr/lib/gcc/arm-none-eabi/13.2.1/../../../arm-none-eabi/lib/thumb/v7e-m+fp/hard/libg.a(libc_a-init.o)
 .debug_str     0x000083f3      0x6af /usr/lib/gcc/arm-none-eabi/13.2.1/../../../arm-none-eabi/lib/thumb/v7e-m+fp/hard/libg.a(libc_a-findfp.o)
 .debug_str     0x000083f3      0x520 /usr/lib/gcc/arm-none-eabi/13.2.1/../../../arm-none-eabi/lib/thumb/v7e-m+fp/hard/libg.a(libc_a-puts.o)
 .debug_str     0x000083f3      0x54b /usr/lib/gcc/arm-none-eabi/13.2.1/../../../arm-none-eabi/lib/thumb/v7e-m+fp/hard/libg.a(libc_a-fvwrite.o)
 .debug_str     0x000083f3      0x1d1 /usr/lib/gcc/arm-none-eabi/13.2.1/../../../arm-none-eabi/lib/thumb/v7e-m+fp/hard/libg.a(libc_a-atexit.o)
 .debug_str     0x000083f3      0x4e2 /usr/lib/gcc/arm-none-eabi/13.2.1/../../../arm-none-eabi/lib/thumb/v7e-m+fp/hard/libg.a(libc_a-printf.o)
 .debug_str     0x000083f3      0x1cb /usr/lib/gcc/arm-none-eabi/13.2.1/../../../arm-none-eabi/lib/thumb/v7e-m+fp/hard/libg.a(libc_a-fini.o)
 .debug_str     0x000083f3       0xa6 /usr/lib/gcc/arm-none-eabi/13.2.1/../../../arm-none-eabi/lib/thumb/v7e-m+fp/hard/libg.a(libc_a-strlen.o)
 .debug_str     0x000083f3      0x4b7 /usr/lib/gcc/arm-none-eabi/13.2.1/../../../arm-none-eabi/lib/thumb/v7e-m+fp/hard/libg.a(libc_a-fwalk.o)
 .debug_str     0x000083f3      0x91e /usr/lib/gcc/arm-none-eabi/13.2.1/../../../arm-none-eabi/lib/thumb/v7e-m+fp/hard/libg.a(libc_a-vfprintf.o)
 .debug_str     0x000083f3       0x99 /usr/lib/gcc/arm-none-eabi/13.2.1/../../../arm-none-eabi/lib/thumb/v7e-m+fp/hard/libg.a(libc_a-memchr.o)
 .debug_str     0x000083f3      0x8cc /usr/lib/gcc/arm-none-eabi/13.2.1/../../../arm-none-eabi/lib/thumb/v7e-m+fp/hard/libg.a(libc_a-svfprintf.o)
 .debug_str     0x000083f3      0x52e /usr/lib/gcc/arm-none-eabi/13.2.1/../../../arm-none-eabi/lib/thumb/v7e-m+fp/hard/libg.a(libc_a-fflush.o)
 .debug_str     0x000083f3      0x1c7 /usr/lib/gcc/arm-none-eabi/13.2.1/../../../arm-none-eabi/lib/thumb/v7e-m+fp/hard/libg.a(libc_a-memmove.o)
 .debug_str     0x000083f3      0x6cf /usr/lib/gcc/arm-none-eabi/13.2.1/../../../arm-none-eabi/lib/thumb/v7e-m+fp/hard/libg.a(libc_a-mallocr.o)
 .debug_str     0x000083f3      0x87f /usr/lib/gcc/arm-none-eabi/13.2.1/../../../arm-none-eabi/lib/thumb/v7e-m+fp/hard/libg.a(libc_a-dtoa.o)
 .debug_str     0x000083f3      0x4d8 /usr/lib/gcc/arm-none-eabi/13.2.1/../../../arm-none-eabi/lib/thumb/v7e-m+fp/hard/libg.a(libc_a-wsetup.o)
 .debug_str     0x000083f3      0x617 /usr/lib/gcc/arm-none-eabi/13.2.1/../../../arm-none-eabi/lib/thumb/v7e-m+fp/hard/libg.a(libc_a-freer.o)
 .debug_str     0x000083f3      0x506 /usr/lib/gcc/arm-none-eabi/13.2.1/../../../arm-none-eabi/lib/thumb/v7e-m+fp/hard/libg.a(libc_a-fclose.o)
 .debug_str     0x000083f3      0x25e /usr/lib/gcc/arm-none-eabi/13.2.1/../../../arm-none-eabi/lib/thumb/v7e-m+fp/hard/libg.a(libc_a-__call_atexit.o)
 .debug_str     0x000083f3      0x19d /usr/lib/gcc/arm-none-eabi/13.2.1/../../../arm-none-eabi/lib/thumb/v7e-m+fp/hard/libg.a(libc_a-sysconf.o)
 .debug_str     0x000083f3      0x514 /usr/lib/gcc/arm-none-eabi/13.2.1/../../../arm-none-eabi/lib/thumb/v7e-m+fp/hard/libg.a(libc_a-stdio.o)
 .debug_str     0x000083f3      0x23c /usr/lib/gcc/arm-none-eabi/13.2.1/../../../arm-none-eabi/lib/thumb/v7e-m+fp/hard/libg.a(libc_a-__atexit.o)
 .debug_str     0x000083f3      0x59a /usr/lib/gcc/arm-none-eabi/13.2.1/../../../arm-none-eabi/lib/thumb/v7e-m+fp/hard/libg.a(libc_a-reallocr.o)
 .debug_str     0x000083f3      0x4c5 /usr/lib/gcc/arm-none-eabi/13.2.1/../../../arm-none-eabi/lib/thumb/v7e-m+fp/hard/libg.a(libc_a-mlock.o)
 .debug_str     0x000083f3      0x4f0 /usr/lib/gcc/arm-none-eabi/13.2.1/../../../arm-none-eabi/lib/thumb/v7e-m+fp/hard/libg.a(libc_a-ssprint_r.o)
 .debug_str     0x000083f3      0x4b0 /usr/lib/gcc/arm-none-eabi/13.2.1/../../../arm-none-eabi/lib/thumb/v7e-m+fp/hard/libg.a(libc_a-sbrkr.o)
 .debug_str     0x000083f3      0x4f0 /usr/lib/gcc/arm-none-eabi/13.2.1/../../../arm-none-eabi/lib/thumb/v7e-m+fp/hard/libg.a(libc_a-sprint_r.o)
 .debug_str     0x000083f3      0x4e0 /usr/lib/gcc/arm-none-eabi/13.2.1/../../../arm-none-eabi/lib/thumb/v7e-m+fp/hard/libg.a(libc_a-assert.o)
 .debug_str     0x000083f3      0x7bd /usr/lib/gcc/arm-none-eabi/13.2.1/../../../arm-none-eabi/lib/thumb/v7e-m+fp/hard/libg.a(libc_a-mprec.o)
 .debug_str     0x000083f3      0x6ed /usr/lib/gcc/arm-none-eabi/13.2.1/../../../arm-none-eabi/lib/thumb/v7e-m+fp/hard/libg.a(libc_a-localeconv.o)
 .debug_str     0x000083f3      0x63a /usr/lib/gcc/arm-none-eabi/13.2.1/../../../arm-none-eabi/lib/thumb/v7e-m+fp/hard/libg.a(libc_a-makebuf.o)
 .debug_str     0x000083f3      0x726 /usr/lib/gcc/arm-none-eabi/13.2.1/../../../arm-none-eabi/lib/thumb/v7e-m+fp/hard/libg.a(libc_a-locale.o)
 .debug_str     0x000083f3      0x6cd /usr/lib/gcc/arm-none-eabi/13.2.1/../../../arm-none-eabi/lib/thumb/v7e-m+fp/hard/libg.a(libc_a-mbtowc_r.o)
 .debug_str     0x000083f3      0x4a1 /usr/lib/gcc/arm-none-eabi/13.2.1/../../../arm-none-eabi/lib/thumb/v7e-m+fp/hard/libg.a(libc_a-errno.o)
 .debug_str     0x000083f3      0x197 /usr/lib/gcc/arm-none-eabi/13.2.1/../../../arm-none-eabi/lib/thumb/v7e-m+fp/hard/libg.a(libc_a-abort.o)
 .debug_str     0x000083f3      0x4f9 /usr/lib/gcc/arm-none-eabi/13.2.1/../../../arm-none-eabi/lib/thumb/v7e-m+fp/hard/libg.a(libc_a-callocr.o)
 .debug_str     0x000083f3      0x4e2 /usr/lib/gcc/arm-none-eabi/13.2.1/../../../arm-none-eabi/lib/thumb/v7e-m+fp/hard/libg.a(libc_a-ssputs_r.o)
 .debug_str     0x000083f3      0x4e9 /usr/lib/gcc/arm-none-eabi/13.2.1/../../../arm-none-eabi/lib/thumb/v7e-m+fp/hard/libg.a(libc_a-fiprintf.o)
 .debug_str     0x000083f3      0x6d4 /usr/lib/gcc/arm-none-eabi/13.2.1/../../../arm-none-eabi/lib/thumb/v7e-m+fp/hard/libg.a(libc_a-wctomb_r.o)
 .debug_str     0x000083f3      0x4c6 /usr/lib/gcc/arm-none-eabi/13.2.1/../../../arm-none-eabi/lib/thumb/v7e-m+fp/hard/libg.a(libc_a-reent.o)
 .debug_str     0x000083f3      0x18d /usr/lib/gcc/arm-none-eabi/13.2.1/../../../arm-none-eabi/lib/thumb/v7e-m+fp/hard/libg.a(libc_a-ctype_.o)
 .debug_str     0x000083f3      0x52e /usr/lib/gcc/arm-none-eabi/13.2.1/../../../arm-none-eabi/lib/thumb/v7e-m+fp/hard/libg.a(libc_a-signal.o)
 .debug_str     0x000083f3      0x834 /usr/lib/gcc/arm-none-eabi/13.2.1/../../../arm-none-eabi/lib/thumb/v7e-m+fp/hard/libg.a(libc_a-vfiprintf.o)
 .debug_str     0x000083f3       0xc2 /usr/lib/gcc/arm-none-eabi/13.2.1/thumb/v7e-m+fp/hard/libgcc.a(_arm_unorddf2.o)

.debug_frame    0x00000000     0x485c
 .debug_frame   0x00000000       0x90 CMakeFiles/SMC.elf.dir/USER/main.c.obj
 .debug_frame   0x00000090      0x110 BSP/libBSP_LIB.a(sys.c.obj)
 .debug_frame   0x000001a0       0xb4 BSP/libBSP_LIB.a(Serial.c.obj)
 .debug_frame   0x00000254       0xfc BSP/libBSP_LIB.a(usart.c.obj)
 .debug_frame   0x00000350       0xa0 BSP/libBSP_LIB.a(gpio.c.obj)
 .debug_frame   0x000003f0      0x11c BSP/libBSP_LIB.a(stm32f4xx_gpio.c.obj)
 .debug_frame   0x0000050c       0x60 BSP/libBSP_LIB.a(misc.c.obj)
 .debug_frame   0x0000056c      0x378 BSP/libBSP_LIB.a(stm32f4xx_rcc.c.obj)
 .debug_frame   0x000008e4       0x30 CORE/libCORE_LIB.a(stratup.c.obj)
 .debug_frame   0x00000914       0x54 CORE/libCORE_LIB.a(system_stm32f4xx.c.obj)
 .debug_frame   0x00000968      0x6e4 HARDWARE/libHARDWARE_LIB.a(inv_mpu.c.obj)
 .debug_frame   0x0000104c      0x388 HARDWARE/libHARDWARE_LIB.a(inv_mpu_dmp_motion_driver.c.obj)
 .debug_frame   0x000013d4      0x3e0 HARDWARE/libHARDWARE_LIB.a(OLED.c.obj)
 .debug_frame   0x000017b4       0x6c HARDWARE/libHARDWARE_LIB.a(sdram.c.obj)
 .debug_frame   0x00001820       0x4c Project/libProject_LIB.a(adc.c.obj)
 .debug_frame   0x0000186c      0x2b8 Project/libProject_LIB.a(stm32f4xx_adc.c.obj)
 .debug_frame   0x00001b24       0x30 Project/libProject_LIB.a(hw201.c.obj)
 .debug_frame   0x00001b54       0x44 Project/libProject_LIB.a(key.c.obj)
 .debug_frame   0x00001b98       0xac Project/libProject_LIB.a(led.c.obj)
 .debug_frame   0x00001c44       0x54 Project/libProject_LIB.a(pwm.c.obj)
 .debug_frame   0x00001c98      0x674 Project/libProject_LIB.a(stm32f4xx_tim.c.obj)
 .debug_frame   0x0000230c       0x2c Project/libProject_LIB.a(tb6612_port.c.obj)
 .debug_frame   0x00002338       0x78 Project/libProject_LIB.a(ControlTask.c.obj)
 .debug_frame   0x000023b0       0x70 Project/libProject_LIB.a(tools.c.obj)
 .debug_frame   0x00002420      0x5cc RTOS/libRTOS_LIB.a(tasks.c.obj)
 .debug_frame   0x000029ec      0x2bc RTOS/libRTOS_LIB.a(timers.c.obj)
 .debug_frame   0x00002ca8       0xec RTOS/libRTOS_LIB.a(heap_4.c.obj)
 .debug_frame   0x00002d94      0x100 RTOS/libRTOS_LIB.a(port.c.obj)
 .debug_frame   0x00002e94       0x70 RTOS/libRTOS_LIB.a(list.c.obj)
 .debug_frame   0x00002f04      0x444 RTOS/libRTOS_LIB.a(queue.c.obj)
 .debug_frame   0x00003348       0x94 USER/libUSER_LIB.a(RTOSTask.c.obj)
 .debug_frame   0x000033dc      0x174 BSP/i2c/libi2c_LIB.a(softi2c.c.obj)
 .debug_frame   0x00003550       0xac /usr/lib/gcc/arm-none-eabi/13.2.1/thumb/v7e-m+fp/hard/libgcc.a(_arm_addsubdf3.o)
 .debug_frame   0x000035fc       0x50 /usr/lib/gcc/arm-none-eabi/13.2.1/thumb/v7e-m+fp/hard/libgcc.a(_arm_muldivdf3.o)
 .debug_frame   0x0000364c       0xc4 /usr/lib/gcc/arm-none-eabi/13.2.1/thumb/v7e-m+fp/hard/libgcc.a(_arm_cmpdf2.o)
 .debug_frame   0x00003710       0x24 /usr/lib/gcc/arm-none-eabi/13.2.1/thumb/v7e-m+fp/hard/libgcc.a(_arm_fixdfsi.o)
 .debug_frame   0x00003734       0x24 /usr/lib/gcc/arm-none-eabi/13.2.1/thumb/v7e-m+fp/hard/libgcc.a(_arm_truncdfsf2.o)
 .debug_frame   0x00003758       0x2c /usr/lib/gcc/arm-none-eabi/13.2.1/../../../arm-none-eabi/lib/thumb/v7e-m+fp/hard/libg.a(libc_a-memset.o)
 .debug_frame   0x00003784       0x7c /usr/lib/gcc/arm-none-eabi/13.2.1/../../../arm-none-eabi/lib/thumb/v7e-m+fp/hard/libg.a(libc_a-strcmp.o)
 .debug_frame   0x00003800       0x54 /usr/lib/gcc/arm-none-eabi/13.2.1/../../../arm-none-eabi/lib/thumb/v7e-m+fp/hard/libg.a(libc_a-vsprintf.o)
 .debug_frame   0x00003854       0x34 /usr/lib/gcc/arm-none-eabi/13.2.1/../../../arm-none-eabi/lib/thumb/v7e-m+fp/hard/libg.a(libc_a-memcmp.o)
 .debug_frame   0x00003888       0x2c /usr/lib/gcc/arm-none-eabi/13.2.1/../../../arm-none-eabi/lib/thumb/v7e-m+fp/hard/libg.a(libc_a-init.o)
 .debug_frame   0x000038b4       0xf4 /usr/lib/gcc/arm-none-eabi/13.2.1/../../../arm-none-eabi/lib/thumb/v7e-m+fp/hard/libg.a(libc_a-findfp.o)
 .debug_frame   0x000039a8       0x44 /usr/lib/gcc/arm-none-eabi/13.2.1/../../../arm-none-eabi/lib/thumb/v7e-m+fp/hard/libg.a(libc_a-puts.o)
 .debug_frame   0x000039ec       0x64 /usr/lib/gcc/arm-none-eabi/13.2.1/../../../arm-none-eabi/lib/thumb/v7e-m+fp/hard/libg.a(libc_a-fvwrite.o)
 .debug_frame   0x00003a50       0x20 /usr/lib/gcc/arm-none-eabi/13.2.1/../../../arm-none-eabi/lib/thumb/v7e-m+fp/hard/libg.a(libc_a-atexit.o)
 .debug_frame   0x00003a70       0x74 /usr/lib/gcc/arm-none-eabi/13.2.1/../../../arm-none-eabi/lib/thumb/v7e-m+fp/hard/libg.a(libc_a-printf.o)
 .debug_frame   0x00003ae4       0x34 /usr/lib/gcc/arm-none-eabi/13.2.1/../../../arm-none-eabi/lib/thumb/v7e-m+fp/hard/libg.a(libc_a-fini.o)
 .debug_frame   0x00003b18       0x34 /usr/lib/gcc/arm-none-eabi/13.2.1/../../../arm-none-eabi/lib/thumb/v7e-m+fp/hard/libg.a(libc_a-fwalk.o)
 .debug_frame   0x00003b4c       0x94 /usr/lib/gcc/arm-none-eabi/13.2.1/../../../arm-none-eabi/lib/thumb/v7e-m+fp/hard/libg.a(libc_a-vfprintf.o)
 .debug_frame   0x00003be0       0x44 /usr/lib/gcc/arm-none-eabi/13.2.1/../../../arm-none-eabi/lib/thumb/v7e-m+fp/hard/libg.a(libc_a-svfprintf.o)
 .debug_frame   0x00003c24       0x88 /usr/lib/gcc/arm-none-eabi/13.2.1/../../../arm-none-eabi/lib/thumb/v7e-m+fp/hard/libg.a(libc_a-fflush.o)
 .debug_frame   0x00003cac       0x40 /usr/lib/gcc/arm-none-eabi/13.2.1/../../../arm-none-eabi/lib/thumb/v7e-m+fp/hard/libg.a(libc_a-memmove.o)
 .debug_frame   0x00003cec       0x48 /usr/lib/gcc/arm-none-eabi/13.2.1/../../../arm-none-eabi/lib/thumb/v7e-m+fp/hard/libg.a(libc_a-mallocr.o)
 .debug_frame   0x00003d34       0x84 /usr/lib/gcc/arm-none-eabi/13.2.1/../../../arm-none-eabi/lib/thumb/v7e-m+fp/hard/libg.a(libc_a-dtoa.o)
 .debug_frame   0x00003db8       0x2c /usr/lib/gcc/arm-none-eabi/13.2.1/../../../arm-none-eabi/lib/thumb/v7e-m+fp/hard/libg.a(libc_a-wsetup.o)
 .debug_frame   0x00003de4       0x78 /usr/lib/gcc/arm-none-eabi/13.2.1/../../../arm-none-eabi/lib/thumb/v7e-m+fp/hard/libg.a(libc_a-freer.o)
 .debug_frame   0x00003e5c       0x3c /usr/lib/gcc/arm-none-eabi/13.2.1/../../../arm-none-eabi/lib/thumb/v7e-m+fp/hard/libg.a(libc_a-fclose.o)
 .debug_frame   0x00003e98       0x54 /usr/lib/gcc/arm-none-eabi/13.2.1/../../../arm-none-eabi/lib/thumb/v7e-m+fp/hard/libg.a(libc_a-__call_atexit.o)
 .debug_frame   0x00003eec       0x28 /usr/lib/gcc/arm-none-eabi/13.2.1/../../../arm-none-eabi/lib/thumb/v7e-m+fp/hard/libg.a(libc_a-sysconf.o)
 .debug_frame   0x00003f14       0x8c /usr/lib/gcc/arm-none-eabi/13.2.1/../../../arm-none-eabi/lib/thumb/v7e-m+fp/hard/libg.a(libc_a-stdio.o)
 .debug_frame   0x00003fa0       0x34 /usr/lib/gcc/arm-none-eabi/13.2.1/../../../arm-none-eabi/lib/thumb/v7e-m+fp/hard/libg.a(libc_a-__atexit.o)
 .debug_frame   0x00003fd4       0x48 /usr/lib/gcc/arm-none-eabi/13.2.1/../../../arm-none-eabi/lib/thumb/v7e-m+fp/hard/libg.a(libc_a-reallocr.o)
 .debug_frame   0x0000401c       0x30 /usr/lib/gcc/arm-none-eabi/13.2.1/../../../arm-none-eabi/lib/thumb/v7e-m+fp/hard/libg.a(libc_a-mlock.o)
 .debug_frame   0x0000404c       0x34 /usr/lib/gcc/arm-none-eabi/13.2.1/../../../arm-none-eabi/lib/thumb/v7e-m+fp/hard/libg.a(libc_a-ssprint_r.o)
 .debug_frame   0x00004080       0x2c /usr/lib/gcc/arm-none-eabi/13.2.1/../../../arm-none-eabi/lib/thumb/v7e-m+fp/hard/libg.a(libc_a-sbrkr.o)
 .debug_frame   0x000040ac       0x28 /usr/lib/gcc/arm-none-eabi/13.2.1/../../../arm-none-eabi/lib/thumb/v7e-m+fp/hard/libg.a(libc_a-sprint_r.o)
 .debug_frame   0x000040d4       0x40 /usr/lib/gcc/arm-none-eabi/13.2.1/../../../arm-none-eabi/lib/thumb/v7e-m+fp/hard/libg.a(libc_a-assert.o)
 .debug_frame   0x00004114      0x288 /usr/lib/gcc/arm-none-eabi/13.2.1/../../../arm-none-eabi/lib/thumb/v7e-m+fp/hard/libg.a(libc_a-mprec.o)
 .debug_frame   0x0000439c       0x40 /usr/lib/gcc/arm-none-eabi/13.2.1/../../../arm-none-eabi/lib/thumb/v7e-m+fp/hard/libg.a(libc_a-localeconv.o)
 .debug_frame   0x000043dc       0x70 /usr/lib/gcc/arm-none-eabi/13.2.1/../../../arm-none-eabi/lib/thumb/v7e-m+fp/hard/libg.a(libc_a-makebuf.o)
 .debug_frame   0x0000444c       0x68 /usr/lib/gcc/arm-none-eabi/13.2.1/../../../arm-none-eabi/lib/thumb/v7e-m+fp/hard/libg.a(libc_a-locale.o)
 .debug_frame   0x000044b4       0x4c /usr/lib/gcc/arm-none-eabi/13.2.1/../../../arm-none-eabi/lib/thumb/v7e-m+fp/hard/libg.a(libc_a-mbtowc_r.o)
 .debug_frame   0x00004500       0x20 /usr/lib/gcc/arm-none-eabi/13.2.1/../../../arm-none-eabi/lib/thumb/v7e-m+fp/hard/libg.a(libc_a-errno.o)
 .debug_frame   0x00004520       0x28 /usr/lib/gcc/arm-none-eabi/13.2.1/../../../arm-none-eabi/lib/thumb/v7e-m+fp/hard/libg.a(libc_a-abort.o)
 .debug_frame   0x00004548       0x2c /usr/lib/gcc/arm-none-eabi/13.2.1/../../../arm-none-eabi/lib/thumb/v7e-m+fp/hard/libg.a(libc_a-callocr.o)
 .debug_frame   0x00004574       0x34 /usr/lib/gcc/arm-none-eabi/13.2.1/../../../arm-none-eabi/lib/thumb/v7e-m+fp/hard/libg.a(libc_a-ssputs_r.o)
 .debug_frame   0x000045a8       0x70 /usr/lib/gcc/arm-none-eabi/13.2.1/../../../arm-none-eabi/lib/thumb/v7e-m+fp/hard/libg.a(libc_a-fiprintf.o)
 .debug_frame   0x00004618       0x3c /usr/lib/gcc/arm-none-eabi/13.2.1/../../../arm-none-eabi/lib/thumb/v7e-m+fp/hard/libg.a(libc_a-wctomb_r.o)
 .debug_frame   0x00004654       0x3c /usr/lib/gcc/arm-none-eabi/13.2.1/../../../arm-none-eabi/lib/thumb/v7e-m+fp/hard/libg.a(libc_a-reent.o)
 .debug_frame   0x00004690      0x118 /usr/lib/gcc/arm-none-eabi/13.2.1/../../../arm-none-eabi/lib/thumb/v7e-m+fp/hard/libg.a(libc_a-signal.o)
 .debug_frame   0x000047a8       0x94 /usr/lib/gcc/arm-none-eabi/13.2.1/../../../arm-none-eabi/lib/thumb/v7e-m+fp/hard/libg.a(libc_a-vfiprintf.o)
 .debug_frame   0x0000483c       0x20 /usr/lib/gcc/arm-none-eabi/13.2.1/thumb/v7e-m+fp/hard/libgcc.a(_arm_unorddf2.o)

.debug_loclists
                0x00000000    0x17d95
 .debug_loclists
                0x00000000       0x52 BSP/libBSP_LIB.a(sys.c.obj)
 .debug_loclists
                0x00000052      0x1fc BSP/libBSP_LIB.a(Serial.c.obj)
 .debug_loclists
                0x0000024e      0x6e9 BSP/libBSP_LIB.a(usart.c.obj)
 .debug_loclists
                0x00000937      0x1b7 BSP/libBSP_LIB.a(gpio.c.obj)
 .debug_loclists
                0x00000aee      0x368 BSP/libBSP_LIB.a(stm32f4xx_gpio.c.obj)
 .debug_loclists
                0x00000e56      0x103 BSP/libBSP_LIB.a(misc.c.obj)
 .debug_loclists
                0x00000f59      0x4fd BSP/libBSP_LIB.a(stm32f4xx_rcc.c.obj)
 .debug_loclists
                0x00001456       0x5d CORE/libCORE_LIB.a(stratup.c.obj)
 .debug_loclists
                0x000014b3       0xfa CORE/libCORE_LIB.a(system_stm32f4xx.c.obj)
 .debug_loclists
                0x000015ad     0x16fa HARDWARE/libHARDWARE_LIB.a(inv_mpu.c.obj)
 .debug_loclists
                0x00002ca7      0x7db HARDWARE/libHARDWARE_LIB.a(inv_mpu_dmp_motion_driver.c.obj)
 .debug_loclists
                0x00003482     0x1b2c HARDWARE/libHARDWARE_LIB.a(OLED.c.obj)
 .debug_loclists
                0x00004fae      0x236 HARDWARE/libHARDWARE_LIB.a(sdram.c.obj)
 .debug_loclists
                0x000051e4       0x48 Project/libProject_LIB.a(adc.c.obj)
 .debug_loclists
                0x0000522c      0x71b Project/libProject_LIB.a(stm32f4xx_adc.c.obj)
 .debug_loclists
                0x00005947       0xa8 Project/libProject_LIB.a(led.c.obj)
 .debug_loclists
                0x000059ef     0x10d8 Project/libProject_LIB.a(stm32f4xx_tim.c.obj)
 .debug_loclists
                0x00006ac7       0x9b Project/libProject_LIB.a(tools.c.obj)
 .debug_loclists
                0x00006b62     0x1709 RTOS/libRTOS_LIB.a(tasks.c.obj)
 .debug_loclists
                0x0000826b      0x9b5 RTOS/libRTOS_LIB.a(timers.c.obj)
 .debug_loclists
                0x00008c20      0x2bd RTOS/libRTOS_LIB.a(heap_4.c.obj)
 .debug_loclists
                0x00008edd       0x97 RTOS/libRTOS_LIB.a(port.c.obj)
 .debug_loclists
                0x00008f74       0x75 RTOS/libRTOS_LIB.a(list.c.obj)
 .debug_loclists
                0x00008fe9     0x1136 RTOS/libRTOS_LIB.a(queue.c.obj)
 .debug_loclists
                0x0000a11f       0xa9 USER/libUSER_LIB.a(RTOSTask.c.obj)
 .debug_loclists
                0x0000a1c8      0x2c8 BSP/i2c/libi2c_LIB.a(softi2c.c.obj)
 .debug_loclists
                0x0000a490      0x1c2 /usr/lib/gcc/arm-none-eabi/13.2.1/../../../arm-none-eabi/lib/thumb/v7e-m+fp/hard/libg.a(libc_a-memset.o)
 .debug_loclists
                0x0000a652       0xd2 /usr/lib/gcc/arm-none-eabi/13.2.1/../../../arm-none-eabi/lib/thumb/v7e-m+fp/hard/libg.a(libc_a-vsprintf.o)
 .debug_loclists
                0x0000a724       0xd6 /usr/lib/gcc/arm-none-eabi/13.2.1/../../../arm-none-eabi/lib/thumb/v7e-m+fp/hard/libg.a(libc_a-memcmp.o)
 .debug_loclists
                0x0000a7fa       0x65 /usr/lib/gcc/arm-none-eabi/13.2.1/../../../arm-none-eabi/lib/thumb/v7e-m+fp/hard/libg.a(libc_a-init.o)
 .debug_loclists
                0x0000a85f      0x1d0 /usr/lib/gcc/arm-none-eabi/13.2.1/../../../arm-none-eabi/lib/thumb/v7e-m+fp/hard/libg.a(libc_a-findfp.o)
 .debug_loclists
                0x0000aa2f       0x89 /usr/lib/gcc/arm-none-eabi/13.2.1/../../../arm-none-eabi/lib/thumb/v7e-m+fp/hard/libg.a(libc_a-puts.o)
 .debug_loclists
                0x0000aab8      0x42a /usr/lib/gcc/arm-none-eabi/13.2.1/../../../arm-none-eabi/lib/thumb/v7e-m+fp/hard/libg.a(libc_a-fvwrite.o)
 .debug_loclists
                0x0000aee2       0x2b /usr/lib/gcc/arm-none-eabi/13.2.1/../../../arm-none-eabi/lib/thumb/v7e-m+fp/hard/libg.a(libc_a-atexit.o)
 .debug_loclists
                0x0000af0d       0x3c /usr/lib/gcc/arm-none-eabi/13.2.1/../../../arm-none-eabi/lib/thumb/v7e-m+fp/hard/libg.a(libc_a-printf.o)
 .debug_loclists
                0x0000af49       0x42 /usr/lib/gcc/arm-none-eabi/13.2.1/../../../arm-none-eabi/lib/thumb/v7e-m+fp/hard/libg.a(libc_a-fini.o)
 .debug_loclists
                0x0000af8b       0x87 /usr/lib/gcc/arm-none-eabi/13.2.1/../../../arm-none-eabi/lib/thumb/v7e-m+fp/hard/libg.a(libc_a-fwalk.o)
 .debug_loclists
                0x0000b012     0x23f1 /usr/lib/gcc/arm-none-eabi/13.2.1/../../../arm-none-eabi/lib/thumb/v7e-m+fp/hard/libg.a(libc_a-vfprintf.o)
 .debug_loclists
                0x0000d403     0x1fd2 /usr/lib/gcc/arm-none-eabi/13.2.1/../../../arm-none-eabi/lib/thumb/v7e-m+fp/hard/libg.a(libc_a-svfprintf.o)
 .debug_loclists
                0x0000f3d5      0x2a4 /usr/lib/gcc/arm-none-eabi/13.2.1/../../../arm-none-eabi/lib/thumb/v7e-m+fp/hard/libg.a(libc_a-fflush.o)
 .debug_loclists
                0x0000f679      0x233 /usr/lib/gcc/arm-none-eabi/13.2.1/../../../arm-none-eabi/lib/thumb/v7e-m+fp/hard/libg.a(libc_a-memmove.o)
 .debug_loclists
                0x0000f8ac      0xa4c /usr/lib/gcc/arm-none-eabi/13.2.1/../../../arm-none-eabi/lib/thumb/v7e-m+fp/hard/libg.a(libc_a-mallocr.o)
 .debug_loclists
                0x000102f8     0x20be /usr/lib/gcc/arm-none-eabi/13.2.1/../../../arm-none-eabi/lib/thumb/v7e-m+fp/hard/libg.a(libc_a-dtoa.o)
 .debug_loclists
                0x000123b6       0x61 /usr/lib/gcc/arm-none-eabi/13.2.1/../../../arm-none-eabi/lib/thumb/v7e-m+fp/hard/libg.a(libc_a-wsetup.o)
 .debug_loclists
                0x00012417      0x46a /usr/lib/gcc/arm-none-eabi/13.2.1/../../../arm-none-eabi/lib/thumb/v7e-m+fp/hard/libg.a(libc_a-freer.o)
 .debug_loclists
                0x00012881       0xf7 /usr/lib/gcc/arm-none-eabi/13.2.1/../../../arm-none-eabi/lib/thumb/v7e-m+fp/hard/libg.a(libc_a-fclose.o)
 .debug_loclists
                0x00012978      0x102 /usr/lib/gcc/arm-none-eabi/13.2.1/../../../arm-none-eabi/lib/thumb/v7e-m+fp/hard/libg.a(libc_a-__call_atexit.o)
 .debug_loclists
                0x00012a7a       0x3b /usr/lib/gcc/arm-none-eabi/13.2.1/../../../arm-none-eabi/lib/thumb/v7e-m+fp/hard/libg.a(libc_a-sysconf.o)
 .debug_loclists
                0x00012ab5      0x23b /usr/lib/gcc/arm-none-eabi/13.2.1/../../../arm-none-eabi/lib/thumb/v7e-m+fp/hard/libg.a(libc_a-stdio.o)
 .debug_loclists
                0x00012cf0       0xe6 /usr/lib/gcc/arm-none-eabi/13.2.1/../../../arm-none-eabi/lib/thumb/v7e-m+fp/hard/libg.a(libc_a-__atexit.o)
 .debug_loclists
                0x00012dd6      0xb89 /usr/lib/gcc/arm-none-eabi/13.2.1/../../../arm-none-eabi/lib/thumb/v7e-m+fp/hard/libg.a(libc_a-reallocr.o)
 .debug_loclists
                0x0001395f       0xba /usr/lib/gcc/arm-none-eabi/13.2.1/../../../arm-none-eabi/lib/thumb/v7e-m+fp/hard/libg.a(libc_a-ssprint_r.o)
 .debug_loclists
                0x00013a19       0x4b /usr/lib/gcc/arm-none-eabi/13.2.1/../../../arm-none-eabi/lib/thumb/v7e-m+fp/hard/libg.a(libc_a-sbrkr.o)
 .debug_loclists
                0x00013a64       0x72 /usr/lib/gcc/arm-none-eabi/13.2.1/../../../arm-none-eabi/lib/thumb/v7e-m+fp/hard/libg.a(libc_a-sprint_r.o)
 .debug_loclists
                0x00013ad6       0xfa /usr/lib/gcc/arm-none-eabi/13.2.1/../../../arm-none-eabi/lib/thumb/v7e-m+fp/hard/libg.a(libc_a-assert.o)
 .debug_loclists
                0x00013bd0     0x20bc /usr/lib/gcc/arm-none-eabi/13.2.1/../../../arm-none-eabi/lib/thumb/v7e-m+fp/hard/libg.a(libc_a-mprec.o)
 .debug_loclists
                0x00015c8c       0x48 /usr/lib/gcc/arm-none-eabi/13.2.1/../../../arm-none-eabi/lib/thumb/v7e-m+fp/hard/libg.a(libc_a-localeconv.o)
 .debug_loclists
                0x00015cd4      0x25e /usr/lib/gcc/arm-none-eabi/13.2.1/../../../arm-none-eabi/lib/thumb/v7e-m+fp/hard/libg.a(libc_a-makebuf.o)
 .debug_loclists
                0x00015f32      0x151 /usr/lib/gcc/arm-none-eabi/13.2.1/../../../arm-none-eabi/lib/thumb/v7e-m+fp/hard/libg.a(libc_a-locale.o)
 .debug_loclists
                0x00016083      0x158 /usr/lib/gcc/arm-none-eabi/13.2.1/../../../arm-none-eabi/lib/thumb/v7e-m+fp/hard/libg.a(libc_a-mbtowc_r.o)
 .debug_loclists
                0x000161db      0x1da /usr/lib/gcc/arm-none-eabi/13.2.1/../../../arm-none-eabi/lib/thumb/v7e-m+fp/hard/libg.a(libc_a-callocr.o)
 .debug_loclists
                0x000163b5      0x16e /usr/lib/gcc/arm-none-eabi/13.2.1/../../../arm-none-eabi/lib/thumb/v7e-m+fp/hard/libg.a(libc_a-ssputs_r.o)
 .debug_loclists
                0x00016523       0x6b /usr/lib/gcc/arm-none-eabi/13.2.1/../../../arm-none-eabi/lib/thumb/v7e-m+fp/hard/libg.a(libc_a-fiprintf.o)
 .debug_loclists
                0x0001658e       0xd9 /usr/lib/gcc/arm-none-eabi/13.2.1/../../../arm-none-eabi/lib/thumb/v7e-m+fp/hard/libg.a(libc_a-wctomb_r.o)
 .debug_loclists
                0x00016667       0x6e /usr/lib/gcc/arm-none-eabi/13.2.1/../../../arm-none-eabi/lib/thumb/v7e-m+fp/hard/libg.a(libc_a-reent.o)
 .debug_loclists
                0x000166d5      0x59c /usr/lib/gcc/arm-none-eabi/13.2.1/../../../arm-none-eabi/lib/thumb/v7e-m+fp/hard/libg.a(libc_a-signal.o)
 .debug_loclists
                0x00016c71     0x1124 /usr/lib/gcc/arm-none-eabi/13.2.1/../../../arm-none-eabi/lib/thumb/v7e-m+fp/hard/libg.a(libc_a-vfiprintf.o)

.debug_line_str
                0x00000000      0x157
 .debug_line_str
                0x00000000      0x157 /usr/lib/gcc/arm-none-eabi/13.2.1/thumb/v7e-m+fp/hard/libgcc.a(_arm_addsubdf3.o)
                                 0x9c (size before relaxing)
 .debug_line_str
                0x00000157       0x9c /usr/lib/gcc/arm-none-eabi/13.2.1/thumb/v7e-m+fp/hard/libgcc.a(_arm_muldivdf3.o)
 .debug_line_str
                0x00000157       0x9c /usr/lib/gcc/arm-none-eabi/13.2.1/thumb/v7e-m+fp/hard/libgcc.a(_arm_cmpdf2.o)
 .debug_line_str
                0x00000157       0x9c /usr/lib/gcc/arm-none-eabi/13.2.1/thumb/v7e-m+fp/hard/libgcc.a(_arm_fixdfsi.o)
 .debug_line_str
                0x00000157       0x9c /usr/lib/gcc/arm-none-eabi/13.2.1/thumb/v7e-m+fp/hard/libgcc.a(_arm_truncdfsf2.o)
 .debug_line_str
                0x00000157       0x93 /usr/lib/gcc/arm-none-eabi/13.2.1/../../../arm-none-eabi/lib/thumb/v7e-m+fp/hard/libg.a(libc_a-strcmp.o)
 .debug_line_str
                0x00000157       0x94 /usr/lib/gcc/arm-none-eabi/13.2.1/../../../arm-none-eabi/lib/thumb/v7e-m+fp/hard/libg.a(libc_a-memcpy.o)
 .debug_line_str
                0x00000157       0x93 /usr/lib/gcc/arm-none-eabi/13.2.1/../../../arm-none-eabi/lib/thumb/v7e-m+fp/hard/libg.a(libc_a-strlen.o)
 .debug_line_str
                0x00000157       0x8d /usr/lib/gcc/arm-none-eabi/13.2.1/../../../arm-none-eabi/lib/thumb/v7e-m+fp/hard/libg.a(libc_a-memchr.o)
 .debug_line_str
                0x00000157       0x9c /usr/lib/gcc/arm-none-eabi/13.2.1/thumb/v7e-m+fp/hard/libgcc.a(_arm_unorddf2.o)
